                             **************************************************************
                             * toknorm::main                                              *
                             **************************************************************
                             undefined __rustcall main()
             undefined         <UNASSIGNED>   <RETURN>
             undefined8        Stack[-0x10]:8 local_10                                XREF[2]:     100004c68(W), 
                                                                                                   1000064c8(*)  
             undefined8        Stack[-0x20]:8 local_20                                XREF[2]:     100004c64(W), 
                                                                                                   1000064cc(R)  
             undefined8        Stack[-0x30]:8 local_30                                XREF[2]:     100004c60(W), 
                                                                                                   1000064d0(R)  
             undefined8        Stack[-0x40]:8 local_40                                XREF[2]:     100004c5c(W), 
                                                                                                   1000064d4(R)  
             undefined8        Stack[-0x50]:8 local_50                                XREF[2]:     100004c58(W), 
                                                                                                   1000064d8(R)  
             undefined8        Stack[-0x60]:8 local_60                                XREF[1]:     100004c54(W)  
             undefined1[16]    Stack[-0x90]   local_90                                XREF[6]:     1000057cc(W), 
                                                                                                   100005ed4(W), 
                                                                                                   100006a64(W), 
                                                                                                   100006acc(W), 
                                                                                                   100006b34(W), 
                                                                                                   100006b9c(W)  
             undefined8        Stack[-0xa0]:8 local_a0                                XREF[4]:     100005128(R), 
                                                                                                   10000517c(W), 
                                                                                                   100006510(W), 
                                                                                                   100006544(R)  
             undefined1[16]    Stack[-0xb0]   local_b0                                XREF[30,7]:  100005118(R), 
                                                                                                   100005178(W), 
                                                                                                   1000054f8(W), 
                                                                                                   100005550(W), 
                                                                                                   1000055a8(W), 
                                                                                                   1000057d0(W), 
                                                                                                   100005af8(R), 
                                                                                                   100005bac(R), 
                                                                                                   100005be0(W), 
                                                                                                   100005cc4(R), 
                                                                                                   100005ed8(W), 
                                                                                                   100005f94(W), 
                                                                                                   10000608c(W), 
                                                                                                   1000060b4(R), 
                                                                                                   100006260(R), 
                                                                                                   100006308(W), 
                                                                                                   100006398(R), 
                                                                                                   100006508(W), 
                                                                                                   10000653c(R), 
                                                                                                   1000066ec(R)  
             undefined1[31]    Stack[-0xd0]   local_d0                                XREF[7,9]:   1000056a0(W), 
                                                                                                   1000059f4(W), 
                                                                                                   10000652c(W), 
                                                                                                   100006a74(W), 
                                                                                                   100006adc(W), 
                                                                                                   100006b44(W), 
                                                                                                   100006bac(W), 
                                                                                                   100006538(W), 
                                                                                                   100006550(W), 
                                                                                                   1000059ec(W), 
                                                                                                   100006548(W), 
                                                                                                   100006a84(W), 
                                                                                                   100006aec(W), 
                                                                                                   100006b54(W), 
                                                                                                   100006bbc(W), 
                                                                                                   1000059f0(W)  
             undefined8        Stack[-0xd8]:8 local_d8                                XREF[4]:     100006a60(R), 
                                                                                                   100006ac8(R), 
                                                                                                   100006b30(R), 
                                                                                                   100006b98(R)  
             undefined1[16]    Stack[-0xe8]   local_e8                                XREF[11]:    100004f20(R), 
                                                                                                   100004f98(R), 
                                                                                                   100004fa0(R), 
                                                                                                   100005008(R), 
                                                                                                   100005018(R), 
                                                                                                   1000050a4(R), 
                                                                                                   100005114(R), 
                                                                                                   100006a54(R), 
                                                                                                   100006abc(R), 
                                                                                                   100006b24(R), 
                                                                                                   100006b8c(R)  
             undefined1[16]    Stack[-0xf8]   local_f8                                XREF[22,6]:  100004d68(R), 
                                                                                                   100004e14(R), 
                                                                                                   100004ea4(R), 
                                                                                                   100004f48(R), 
                                                                                                   100004fcc(R), 
                                                                                                   100005044(R), 
                                                                                                   10000510c(R), 
                                                                                                   100005218(W), 
                                                                                                   100005270(W), 
                                                                                                   100005304(W), 
                                                                                                   100005358(W), 
                                                                                                   10000592c(W), 
                                                                                                   10000595c(R), 
                                                                                                   100005ab0(W), 
                                                                                                   100005b6c(W), 
                                                                                                   100005c84(W), 
                                                                                                   10000618c(R), 
                                                                                                   100006578(W), 
                                                                                                   100006a50(R), 
                                                                                                   100006ab8(R)  
             undefined8        Stack[-0x108   local_108                               XREF[2]:     10000620c(R), 
                                                                                                   1000067cc(R)  
             undefined8        Stack[-0x110   local_110                               XREF[4,2]:   100005fd4(R), 
                                                                                                   1000064f0(W), 
                                                                                                   100006528(R), 
                                                                                                   1000067c4(R), 
                                                                                                   1000064fc(W), 
                                                                                                   100006534(R)  
             undefined8        Stack[-0x120   local_120                               XREF[3]:     100004cd8(W), 
                                                                                                   1000053c4(W), 
                                                                                                   100005410(W)  
             undefined1[16]    Stack[-0x130   local_130                               XREF[5,7]:   100004cc4(W), 
                                                                                                   100005138(R), 
                                                                                                   1000053b8(W), 
                                                                                                   100005408(W), 
                                                                                                   100006a04(R), 
                                                                                                   100004d0c(R), 
                                                                                                   100004dac(R), 
                                                                                                   100004e48(R), 
                                                                                                   100004ee4(R), 
                                                                                                   1000053c0(W), 
                                                                                                   10000540c(W), 
                                                                                                   100006a0c(R)  
             undefined4        Stack[-0x490   local_490                               XREF[2]:     1000051cc(W), 
                                                                                                   1000054c4(W)  
             undefined1[16]    Stack[-0x4a0   local_4a0                               XREF[2]:     1000051c8(W), 
                                                                                                   1000054bc(W)  
             undefined1[16]    Stack[-0x4b0   local_4b0                               XREF[2]:     1000051c0(W), 
                                                                                                   1000054b8(W)  
             undefined8        Stack[-0x4c0   local_4c0                               XREF[1]:     100004cf0(W)  
             undefined1[16]    Stack[-0x4d0   local_4d0                               XREF[14]:    100004cec(W), 
                                                                                                   1000051e0(W), 
                                                                                                   1000054d4(W), 
                                                                                                   1000058fc(W), 
                                                                                                   1000059a0(W), 
                                                                                                   1000059d4(R), 
                                                                                                   100005ffc(W), 
                                                                                                   100006244(W), 
                                                                                                   100006724(W), 
                                                                                                   100006794(W), 
                                                                                                   100006804(W), 
                                                                                                   100006860(W), 
                                                                                                   1000068bc(W), 
                                                                                                   100006904(W)  
             undefined8        Stack[-0x4d8   local_4d8                               XREF[18]:    100005904(W), 
                                                                                                   1000059cc(R), 
                                                                                                   100005acc(W), 
                                                                                                   100005b80(W), 
                                                                                                   100005c00(W), 
                                                                                                   100005c98(W), 
                                                                                                   100006004(W), 
                                                                                                   1000061a8(W), 
                                                                                                   100006254(W), 
                                                                                                   1000063e4(W), 
                                                                                                   10000659c(W), 
                                                                                                   100006634(W), 
                                                                                                   100006734(W), 
                                                                                                   1000067a4(W), 
                                                                                                   100006814(W), 
                                                                                                   100006870(W), 
                                                                                                   1000068cc(W), 
                                                                                                   100006914(W)  
             undefined8        Stack[-0x4e0   local_4e0                               XREF[20]:    100005900(W), 
                                                                                                   100005974(R), 
                                                                                                   1000059c8(R), 
                                                                                                   100005ac8(W), 
                                                                                                   100005b7c(W), 
                                                                                                   100005bfc(W), 
                                                                                                   100005c94(W), 
                                                                                                   100006000(W), 
                                                                                                   100006070(R), 
                                                                                                   1000061a4(W), 
                                                                                                   100006250(W), 
                                                                                                   1000063e0(W), 
                                                                                                   100006598(W), 
                                                                                                   100006630(W), 
                                                                                                   100006730(W), 
                                                                                                   1000067a0(W), 
                                                                                                   100006810(W), 
                                                                                                   10000686c(W), 
                                                                                                   1000068c8(W), 
                                                                                                   100006910(W)  
             undefined1[16]    Stack[-0x4f0   local_4f0                               XREF[34,37]: 100004ce4(W), 
                                                                                                   1000051d8(W), 
                                                                                                   1000054cc(W), 
                                                                                                   100005668(W), 
                                                                                                   10000567c(R), 
                                                                                                   1000056cc(W), 
                                                                                                   1000056e0(R), 
                                                                                                   1000057e4(R), 
                                                                                                   100005888(W), 
                                                                                                   1000058f0(W), 
                                                                                                   10000596c(R), 
                                                                                                   100005994(W), 
                                                                                                   1000059e8(R), 
                                                                                                   100005ab4(W), 
                                                                                                   100005b70(W), 
                                                                                                   100005bf0(W), 
                                                                                                   100005c88(W), 
                                                                                                   100005ff0(W), 
                                                                                                   100006068(R), 
                                                                                                   100006190(R)  
             undefined4        Stack[-0x850   local_850                               XREF[3]:     100005a20(W), 
                                                                                                   100005bc4(R), 
                                                                                                   100005dc4(R)  
             undefined8        Stack[-0x858   local_858                               XREF[2]:     100005c54(R), 
                                                                                                   100005e10(R)  
             undefined8        Stack[-0x860   local_860                               XREF[2]:     100005c50(R), 
                                                                                                   100005df8(R)  
             undefined1[16]    Stack[-0x870   local_870                               XREF[4,2]:   100005a18(W), 
                                                                                                   100005c3c(R), 
                                                                                                   100005dc8(R), 
                                                                                                   100005e88(R), 
                                                                                                   100005c40(R), 
                                                                                                   100005de0(R)  
             undefined8        Stack[-0x878   local_878                               XREF[2]:     100005b3c(R), 
                                                                                                   100005d98(R)  
             undefined8        Stack[-0x880   local_880                               XREF[2]:     100005b38(R), 
                                                                                                   100005d80(R)  
             undefined1[16]    Stack[-0x890   local_890                               XREF[5,2]:   1000051a8(W), 
                                                                                                   100005a30(W), 
                                                                                                   100005b24(R), 
                                                                                                   100005d50(R), 
                                                                                                   100005e80(R), 
                                                                                                   100005b28(R), 
                                                                                                   100005d68(R)  
             undefined8        Stack[-0x898   local_898                               XREF[3]:     100005a68(R), 
                                                                                                   100005d24(R), 
                                                                                                   10000677c(W)  
             undefined8        Stack[-0x8a0   local_8a0                               XREF[5]:     1000051f0(R), 
                                                                                                   100005a64(R), 
                                                                                                   100005d0c(R), 
                                                                                                   100006128(R), 
                                                                                                   100006778(W)  
             undefined1[16]    Stack[-0x8b0   local_8b0                               XREF[21,22]: 1000051b4(W), 
                                                                                                   1000051e8(R), 
                                                                                                   100005244(R), 
                                                                                                   10000529c(R), 
                                                                                                   1000052c0(W), 
                                                                                                   100005330(R), 
                                                                                                   100005384(R), 
                                                                                                   100005498(W), 
                                                                                                   1000058d0(R), 
                                                                                                   100005a28(W), 
                                                                                                   100005a50(R), 
                                                                                                   100005cdc(R), 
                                                                                                   100005e74(R), 
                                                                                                   10000612c(W), 
                                                                                                   100006170(R), 
                                                                                                   1000066f4(W), 
                                                                                                   100006770(W), 
                                                                                                   100006820(R), 
                                                                                                   100006884(R), 
                                                                                                   1000068a0(W)  
             undefined1[11]    Stack[-0x8c0   local_8c0                               XREF[3,4]:   100005700(W), 
                                                                                                   1000060b8(W), 
                                                                                                   100006228(W), 
                                                                                                   1000060c0(W), 
                                                                                                   1000060c4(W), 
                                                                                                   100005708(W), 
                                                                                                   10000622c(W)  
             undefined8        Stack[-0xc08   local_c08                               XREF[2]:     1000051e4(R), 
                                                                                                   1000059dc(R)  
             undefined8        Stack[-0xc10   local_c10                               XREF[2]:     10000518c(R), 
                                                                                                   100005444(R)  
             undefined4        Stack[-0xc14   local_c14                               XREF[2]:     1000051a4(R), 
                                                                                                   10000599c(R)  
             undefined1[16]    Stack[-0xc24   local_c24                               XREF[2]:     1000051c4(R), 
                                                                                                   1000059b4(R)  
             undefined1[20]    Stack[-0xc44   local_c44                               XREF[2,8]:   1000051b8(R), 
                                                                                                   1000059a8(R), 
                                                                                                   1000054c0(R), 
                                                                                                   100005730(R), 
                                                                                                   100005a1c(R), 
                                                                                                   1000054d8(R), 
                                                                                                   100005748(R), 
                                                                                                   100005a34(R), 
                                                                                                   1000051bc(R), 
                                                                                                   1000059b0(R)  
             undefined1[20]    Stack[-0xc58   local_c58                               XREF[1,2]:   100004cd4(R), 
                                                                                                   1000051dc(R), 
                                                                                                   1000059a4(R)  
             undefined1[16]    Stack[-0xc68   local_c68                               XREF[1,5]:   100004ce8(R), 
                                                                                                   1000051d4(R), 
                                                                                                   1000059c0(R), 
                                                                                                   1000054b4(R), 
                                                                                                   100005728(R), 
                                                                                                   100005a14(R)  
             undefined1[32]    Stack[-0xc90   local_c90                               XREF[21,29]: 100004cd0(R), 
                                                                                                   100005234(W), 
                                                                                                   10000528c(W), 
                                                                                                   1000052e0(W), 
                                                                                                   100005320(W), 
                                                                                                   100005374(W), 
                                                                                                   100005434(R), 
                                                                                                   100005514(W), 
                                                                                                   10000556c(W), 
                                                                                                   1000055c4(W), 
                                                                                                   100005614(W), 
                                                                                                   10000563c(R), 
                                                                                                   10000593c(W), 
                                                                                                   100005ae8(W), 
                                                                                                   100005b9c(W), 
                                                                                                   100005c1c(W), 
                                                                                                   100005cb4(W), 
                                                                                                   100006038(W), 
                                                                                                   100006110(W), 
                                                                                                   1000065b8(W)  
             undefined1[16]    Stack[-0xca0   local_ca0                               XREF[33,19]: 100004ca4(R), 
                                                                                                   100004cb8(R), 
                                                                                                   100005190(R), 
                                                                                                   100005228(W), 
                                                                                                   100005280(W), 
                                                                                                   1000052d4(W), 
                                                                                                   100005314(W), 
                                                                                                   100005368(W), 
                                                                                                   1000053d4(R), 
                                                                                                   100005420(R), 
                                                                                                   100005448(R), 
                                                                                                   1000054c8(R), 
                                                                                                   100005508(W), 
                                                                                                   100005560(W), 
                                                                                                   1000055b8(W), 
                                                                                                   100005608(W), 
                                                                                                   10000565c(W), 
                                                                                                   100005698(R), 
                                                                                                   1000056c0(W), 
                                                                                                   1000056fc(R)  
             undefined4        Stack[-0xcb0   local_cb0                               XREF[3]:     100005734(W), 
                                                                                                   1000059fc(W), 
                                                                                                   100006688(R)  
             undefined8        Stack[-0xcb8   local_cb8                               XREF[1]:     100005e14(R)  
             undefined8        Stack[-0xcc0   local_cc0                               XREF[2]:     100005c58(R), 
                                                                                                   100005dfc(R)  
             undefined1[16]    Stack[-0xcd0   local_cd0                               XREF[5,1]:   10000572c(W), 
                                                                                                   100005780(R), 
                                                                                                   1000059b8(W), 
                                                                                                   100005c44(R), 
                                                                                                   100005dcc(R), 
                                                                                                   100005de4(R)  
             undefined8        Stack[-0xcd8   local_cd8                               XREF[1]:     100005d9c(R)  
             undefined8        Stack[-0xce0   local_ce0                               XREF[2]:     100005b40(R), 
                                                                                                   100005d84(R)  
             undefined1[16]    Stack[-0xcf0   local_cf0                               XREF[5,1]:   100005744(W), 
                                                                                                   100005778(R), 
                                                                                                   1000059ac(W), 
                                                                                                   100005b2c(R), 
                                                                                                   100005d54(R), 
                                                                                                   100005d6c(R)  
             undefined8        Stack[-0xcf8   local_cf8                               XREF[7]:     1000051f4(W), 
                                                                                                   100005d28(R), 
                                                                                                   1000069dc(W), 
                                                                                                   100006aa4(W), 
                                                                                                   100006b00(W), 
                                                                                                   100006b68(W), 
                                                                                                   100006bd0(W)  
             undefined1[24]    Stack[-0xd10   local_d10                               XREF[20,12]: 1000051f8(W), 
                                                                                                   100005524(R), 
                                                                                                   10000557c(R), 
                                                                                                   1000055d4(R), 
                                                                                                   1000055f8(W), 
                                                                                                   10000573c(W), 
                                                                                                   100005770(R), 
                                                                                                   1000059c4(W), 
                                                                                                   100005a58(R), 
                                                                                                   100005ce0(R), 
                                                                                                   100006028(W), 
                                                                                                   100006058(R), 
                                                                                                   1000063c8(R), 
                                                                                                   100006540(W), 
                                                                                                   100006610(W), 
                                                                                                   1000069cc(W), 
                                                                                                   100006a90(W), 
                                                                                                   100006afc(W), 
                                                                                                   100006b64(W), 
                                                                                                   100006bcc(W)  
             undefined4        Stack[-0xd18   local_d18                               XREF[1]:     1000059d8(W)  
             undefined8        Stack[-0xd20   local_d20                               XREF[1]:     1000059d0(W)  
             undefined8        Stack[-0xd28   local_d28                               XREF[2]:     1000053b4(W), 
                                                                                                   100005400(W)  
             undefined8        Stack[-0xd38   local_d38                               XREF[8]:     100004d64(W), 
                                                                                                   100004e10(W), 
                                                                                                   100004ea0(W), 
                                                                                                   100004f44(W), 
                                                                                                   100004fc8(W), 
                                                                                                   100005040(W), 
                                                                                                   1000053b0(W), 
                                                                                                   1000053fc(W)  
             undefined8        Stack[-0xd40   local_d40                               XREF[5]:     10000507c(R), 
                                                                                                   100005470(R), 
                                                                                                   1000062d4(R), 
                                                                                                   10000649c(R), 
                                                                                                   100006990(R)  
             undefined8        Stack[-0xd48   local_d48                               XREF[10]:    10000500c(W), 
                                                                                                   10000501c(W), 
                                                                                                   100005404(R), 
                                                                                                   100005478(R), 
                                                                                                   1000058c4(R), 
                                                                                                   100006124(W), 
                                                                                                   1000062dc(R), 
                                                                                                   1000063a4(R), 
                                                                                                   1000066d8(R), 
                                                                                                   100006938(R)  
             undefined8        Stack[-0xd50   local_d50                               XREF[9]:     100005430(W), 
                                                                                                   100005460(R), 
                                                                                                   100005640(R), 
                                                                                                   100005a08(R), 
                                                                                                   1000061dc(R), 
                                                                                                   1000062c4(R), 
                                                                                                   100006558(R), 
                                                                                                   100006568(R), 
                                                                                                   1000065f0(R)  
             undefined8        Stack[-0xd58   local_d58                               XREF[9]:     10000511c(W), 
                                                                                                   1000053ec(R), 
                                                                                                   100005450(W), 
                                                                                                   1000056a8(R), 
                                                                                                   1000060d0(R), 
                                                                                                   1000060e0(R), 
                                                                                                   1000062ac(R), 
                                                                                                   100006418(R), 
                                                                                                   10000644c(R)  
             undefined8        Stack[-0xd60   local_d60                               XREF[10]:    1000059f8(W), 
                                                                                                   100005bc8(R), 
                                                                                                   100005e3c(R), 
                                                                                                   1000061b0(R), 
                                                                                                   100006554(R), 
                                                                                                   1000065d4(R), 
                                                                                                   1000066a4(R), 
                                                                                                   1000066c8(R), 
                                                                                                   1000066e0(R), 
                                                                                                   10000697c(R)  
             undefined8        Stack[-0xd68   local_d68                               XREF[7]:     1000050a8(W), 
                                                                                                   1000053bc(R), 
                                                                                                   1000058dc(R), 
                                                                                                   1000059e0(W), 
                                                                                                   100005fc8(R), 
                                                                                                   1000062b4(R), 
                                                                                                   1000066f8(R)  
             undefined8        Stack[-0xd70   local_d70                               XREF[9]:     100004fa4(W), 
                                                                                                   100005090(R), 
                                                                                                   100005124(R), 
                                                                                                   1000056b4(W), 
                                                                                                   100005714(R), 
                                                                                                   1000061f8(W), 
                                                                                                   100006294(R), 
                                                                                                   100006448(R), 
                                                                                                   1000065fc(W)  
             undefined8        Stack[-0xd78   local_d78                               XREF[7]:     100005110(W), 
                                                                                                   100005918(R), 
                                                                                                   100005a38(W), 
                                                                                                   1000061ec(R), 
                                                                                                   1000062a0(R), 
                                                                                                   100006474(R), 
                                                                                                   100006564(R)  
             undefined8        Stack[-0xd80   local_d80                               XREF[8]:     100005638(W), 
                                                                                                   1000059e4(W), 
                                                                                                   100005fcc(R), 
                                                                                                   100006200(R), 
                                                                                                   10000642c(R), 
                                                                                                   100006600(R), 
                                                                                                   10000695c(R), 
                                                                                                   100006968(R)  
             undefined4        Stack[-0xd84   local_d84                               XREF[2]:     10000564c(W), 
                                                                                                   100006444(R)  
             undefined8        Stack[-0xd90   local_d90                               XREF[4]:     100005120(W), 
                                                                                                   1000060dc(R), 
                                                                                                   100006420(R), 
                                                                                                   10000645c(R)  
             undefined8        Stack[-0xd98   local_d98                               XREF[11]:    100005654(W), 
                                                                                                   1000058c8(R), 
                                                                                                   100005984(R), 
                                                                                                   100006014(R), 
                                                                                                   10000617c(R), 
                                                                                                   100006394(R), 
                                                                                                   1000063ec(R), 
                                                                                                   1000065ec(R), 
                                                                                                   10000666c(R), 
                                                                                                   100006974(R), 
                                                                                                   100006980(R)  
             undefined8        Stack[-0xda0   local_da0                               XREF[8]:     10000574c(W), 
                                                                                                   10000591c(R), 
                                                                                                   100005968(W), 
                                                                                                   100006064(W), 
                                                                                                   1000060d4(R), 
                                                                                                   1000063bc(R), 
                                                                                                   10000655c(R), 
                                                                                                   100006950(R)  
             undefined8        Stack[-0xda8   local_da8                               XREF[2]:     10000512c(W), 
                                                                                                   100006018(R)  
             undefined8        Stack[-0xdb0   local_db0                               XREF[1]:     100004c74(W)  
                             __ZN7toknorm4main17h548d2983139c6e09E           XREF[2]:     entry:10000a7c4(*), 1000df21e(*)  
                             toknorm::main
       100004c54 fc 6f ba a9     stp        x28,x27,[sp, #local_60]!
       100004c58 fa 67 01 a9     stp        x26,x25,[sp, #local_50]
       100004c5c f8 5f 02 a9     stp        x24,x23,[sp, #local_40]
       100004c60 f6 57 03 a9     stp        x22,x21,[sp, #local_30]
       100004c64 f4 4f 04 a9     stp        x20,x19,[sp, #local_20]
       100004c68 fd 7b 05 a9     stp        x29,x30,[sp, #local_10]
       100004c6c fd 43 01 91     add        x29,sp,#0x50
       100004c70 ff 43 35 d1     sub        sp,sp,#0xd50
       100004c74 ff 03 00 f9     str        xzr,[sp]=>local_db0
       100004c78 e8 43 04 91     add        x8,sp,#0x110
       100004c7c 33 09 00 94     bl         _<>::command                                     undefined command()
       100004c80 e8 03 23 91     add        x8,sp,#0x8c0
       100004c84 3c e3 01 94     bl         std::env::args_os                                undefined args_os()
       100004c88 e8 03 14 91     add        x8,sp,#0x500
       100004c8c e0 43 04 91     add        x0,sp,#0x110
       100004c90 e1 03 23 91     add        x1,sp,#0x8c0
       100004c94 0b 3c 00 94     bl         clap_builder::builder::command::Command::get_m   undefined get_matches_from()
       100004c98 e8 43 04 91     add        x8,sp,#0x110
       100004c9c e0 03 14 91     add        x0,sp,#0x500
       100004ca0 25 31 01 94     bl         clap_builder::parser::matches::arg_matches::Ar   undefined remove_subcommand()
       100004ca4 e8 8b 40 f9     ldr        x8,[sp, #local_ca0[0]]
       100004ca8 09 00 f0 d2     mov        x9,#-0x8000000000000000
       100004cac 1f 01 09 eb     cmp        x8,x9
       100004cb0 60 eb 00 54     b.eq       LAB_100006a1c
       100004cb4 f7 43 04 91     add        x23,sp,#0x110
       100004cb8 e0 02 c0 3d     ldr        q0,[x23]=>local_ca0[0]
       100004cbc b8 03 04 d1     sub        x24,x29,#0x100
       100004cc0 fb c3 13 91     add        x27,sp,#0x4f0
       100004cc4 60 e7 81 3d     str        q0,[x27, #local_130[0]]
       100004cc8 99 00 80 d2     mov        x25,#0x4
       100004ccc 19 00 f0 f2     movk       x25,#0x8000, LSL #48
       100004cd0 e8 93 40 f9     ldr        x8,[sp, #local_c90[0]]
       100004cd4 e9 af 40 f9     ldr        x9,[sp, #local_c58[0]]
       100004cd8 e8 4b 06 f9     str        x8,[sp, #local_120]
       100004cdc e0 82 c1 3c     ldur       q0,[x23, #local_c90[8]]
       100004ce0 e1 82 c2 3c     ldur       q1,[x23, #local_c90[24]]
       100004ce4 60 87 1e ad     stp        q0,q1,[x27, #local_4f0[0]]
       100004ce8 e0 82 c3 3c     ldur       q0,[x23, #local_c68[0]]
       100004cec 60 ff 80 3d     str        q0,[x27, #local_4d0[0]]
       100004cf0 e9 7b 04 f9     str        x9,[sp, #local_4c0]
       100004cf4 1f 1d 00 f1     cmp        x8,#0x7
       100004cf8 2c 05 00 54     b.gt       LAB_100004d9c
       100004cfc 1f 15 00 f1     cmp        x8,#0x5
       100004d00 40 0a 00 54     b.eq       LAB_100004e48
       100004d04 1f 19 00 f1     cmp        x8,#0x6
       100004d08 41 e5 00 54     b.ne       LAB_1000069b0
       100004d0c fa 47 46 f9     ldr        x26,[sp, #local_130[8]]
       100004d10 48 03 40 b9     ldr        w8,[x26]
       100004d14 49 0b 40 79     ldrh       w9,[x26, #0x4]
       100004d18 8a 2e 8c 52     mov        w10,#0x6174
       100004d1c 4a ee ac 72     movk       w10,#0x6772, LSL #16
       100004d20 1f 01 0a 6b     cmp        w8,w10
       100004d24 a8 8c 8e 52     mov        w8,#0x7465
       100004d28 20 01 48 7a     ccmp       w9,w8,#0x0,eq
       100004d2c 21 e4 00 54     b.ne       LAB_1000069b0
       100004d30 e0 03 23 91     add        x0,sp,#0x8c0
       100004d34 21 00 80 52     mov        w1,#0x1
       100004d38 02 00 80 d2     mov        x2,#0x0
       100004d3c dd 30 01 94     bl         clap_builder::parser::matches::arg_matches::Ar   undefined contains_id()
       100004d40 80 e3 00 37     tbnz       w0,#0x0,LAB_1000069b0
       100004d44 13 05 00 90     adrp       x19,0x1000a4000
       100004d48 73 ea 3c 91     add        x19,x19,#0xf3a
       100004d4c a8 a3 03 d1     sub        x8,x29,#0xe8
       100004d50 e0 03 23 91     add        x0,sp,#0x8c0
       100004d54 e1 03 13 aa     mov        x1=>DAT_1000a4f3a,x19                            = 61h    a
       100004d58 c2 00 80 52     mov        w2,#0x6
       100004d5c cb 26 00 94     bl         clap_builder::parser::matches::arg_matches::Ar   undefined try_remove_one()
       100004d60 c8 00 80 52     mov        w8,#0x6
       100004d64 f3 a3 07 a9     stp        x19=>DAT_1000a4f3a,x8,[sp, #local_d38]           = 61h    a
       100004d68 a8 83 51 f8     ldur       x8,[x29, #local_f8[0]]
       100004d6c 1f 09 00 f1     cmp        x8,#0x2
       100004d70 01 e7 00 54     b.ne       LAB_100006a50
       100004d74 b3 03 52 f8     ldur       x19,[x29, #local_f8[8]]
       100004d78 15 00 f0 d2     mov        x21,#-0x8000000000000000
       100004d7c 7f 02 15 eb     cmp        x19,x21
       100004d80 c1 10 00 54     b.ne       LAB_100004f98
       100004d84 01 05 00 90     adrp       x1,0x1000a4000
       100004d88 21 00 3d 91     add        x1=>DAT_1000a4f40,x1,#0xf40                      = 54h    T
       100004d8c 20 01 80 52     mov        w0,#0x9
       100004d90 02 07 80 52     mov        w2,#0x38
       100004d94 68 2b 00 94     bl         clap_builder::error::Error<F>::raw               undefined raw()
       100004d98 4f 00 00 14     b          LAB_100004ed4
                             LAB_100004d9c                                   XREF[1]:     100004cf8(j)  
       100004d9c 1f 21 00 f1     cmp        x8,#0x8
       100004da0 20 0a 00 54     b.eq       LAB_100004ee4
       100004da4 1f 31 00 f1     cmp        x8,#0xc
       100004da8 41 e0 00 54     b.ne       LAB_1000069b0
       100004dac fa 47 46 f9     ldr        x26,[sp, #local_130[8]]
       100004db0 48 03 40 f9     ldr        x8,[x26]
       100004db4 49 0b 40 b9     ldr        w9,[x26, #0x8]
       100004db8 4a ac 8e d2     mov        x10,#0x7562
       100004dbc 2a 8d ad f2     movk       x10,#0x6c69, LSL #16
       100004dc0 8a ac c5 f2     movk       x10,#0x2d64, LSL #32
       100004dc4 2a 6c ee f2     movk       x10,#0x7361, LSL #48
       100004dc8 1f 01 0a eb     cmp        x8,x10
       100004dcc 68 ae 8c 52     mov        w8,#0x6573
       100004dd0 88 6e ae 72     movk       w8,#0x7374, LSL #16
       100004dd4 20 01 48 7a     ccmp       w9,w8,#0x0,eq
       100004dd8 c1 de 00 54     b.ne       LAB_1000069b0
       100004ddc e0 03 23 91     add        x0,sp,#0x8c0
       100004de0 21 00 80 52     mov        w1,#0x1
       100004de4 02 00 80 d2     mov        x2,#0x0
       100004de8 b2 30 01 94     bl         clap_builder::parser::matches::arg_matches::Ar   undefined contains_id()
       100004dec 20 de 00 37     tbnz       w0,#0x0,LAB_1000069b0
       100004df0 13 05 00 b0     adrp       x19,0x1000a5000
       100004df4 73 b2 0d 91     add        x19,x19,#0x36c
       100004df8 a8 a3 03 d1     sub        x8,x29,#0xe8
       100004dfc e0 03 23 91     add        x0,sp,#0x8c0
       100004e00 e1 03 13 aa     mov        x1=>s_text_1000a536c,x19                         = "text"
       100004e04 82 00 80 52     mov        w2,#0x4
       100004e08 a0 26 00 94     bl         clap_builder::parser::matches::arg_matches::Ar   undefined try_remove_one()
       100004e0c 88 00 80 52     mov        w8,#0x4
       100004e10 f3 a3 07 a9     stp        x19=>s_text_1000a536c,x8,[sp, #local_d38]        = "text"
       100004e14 a8 83 51 f8     ldur       x8,[x29, #local_f8[0]]
       100004e18 1f 09 00 f1     cmp        x8,#0x2
       100004e1c a1 e1 00 54     b.ne       LAB_100006a50
       100004e20 b5 03 52 f8     ldur       x21,[x29, #local_f8[8]]
       100004e24 08 00 f0 d2     mov        x8,#-0x8000000000000000
       100004e28 bf 02 08 eb     cmp        x21,x8
       100004e2c a1 0b 00 54     b.ne       LAB_100004fa0
       100004e30 01 05 00 90     adrp       x1,0x1000a4000
       100004e34 21 fc 3e 91     add        x1=>DAT_1000a4fbf,x1,#0xfbf                      = 54h    T
       100004e38 20 01 80 52     mov        w0,#0x9
       100004e3c c2 06 80 52     mov        w2,#0x36
       100004e40 3d 2b 00 94     bl         clap_builder::error::Error<F>::raw               undefined raw()
       100004e44 24 00 00 14     b          LAB_100004ed4
                             LAB_100004e48                                   XREF[1]:     100004d00(j)  
       100004e48 fa 47 46 f9     ldr        x26,[sp, #local_130[8]]
       100004e4c 48 03 40 b9     ldr        w8,[x26]
       100004e50 49 13 40 39     ldrb       w9,[x26, #0x4]
       100004e54 0a 4e 8e 52     mov        w10,#0x7270
       100004e58 ea 4d ac 72     movk       w10,#0x626f, LSL #16
       100004e5c 1f 01 0a 6b     cmp        w8,w10
       100004e60 a8 0c 80 52     mov        w8,#0x65
       100004e64 20 01 48 7a     ccmp       w9,w8,#0x0,eq
       100004e68 41 da 00 54     b.ne       LAB_1000069b0
       100004e6c e0 03 23 91     add        x0,sp,#0x8c0
       100004e70 21 00 80 52     mov        w1,#0x1
       100004e74 02 00 80 d2     mov        x2,#0x0
       100004e78 8e 30 01 94     bl         clap_builder::parser::matches::arg_matches::Ar   undefined contains_id()
       100004e7c a0 d9 00 37     tbnz       w0,#0x0,LAB_1000069b0
       100004e80 13 05 00 b0     adrp       x19,0x1000a5000
       100004e84 73 a2 0d 91     add        x19,x19,#0x368
       100004e88 a8 a3 03 d1     sub        x8,x29,#0xe8
       100004e8c e0 03 23 91     add        x0,sp,#0x8c0
       100004e90 e1 03 13 aa     mov        x1=>s_file_1000a5368,x19                         = "file"
       100004e94 82 00 80 52     mov        w2,#0x4
       100004e98 7c 26 00 94     bl         clap_builder::parser::matches::arg_matches::Ar   undefined try_remove_one()
       100004e9c 88 00 80 52     mov        w8,#0x4
       100004ea0 f3 a3 07 a9     stp        x19=>s_file_1000a5368,x8,[sp, #local_d38]        = "file"
       100004ea4 a8 83 51 f8     ldur       x8,[x29, #local_f8[0]]
       100004ea8 1f 09 00 f1     cmp        x8,#0x2
       100004eac 21 dd 00 54     b.ne       LAB_100006a50
       100004eb0 b3 03 52 f8     ldur       x19,[x29, #local_f8[8]]
       100004eb4 08 00 f0 d2     mov        x8,#-0x8000000000000000
       100004eb8 7f 02 08 eb     cmp        x19,x8
       100004ebc 21 03 00 54     b.ne       LAB_100004f20
       100004ec0 01 05 00 90     adrp       x1,0x1000a4000
       100004ec4 21 f4 3d 91     add        x1=>DAT_1000a4f7d,x1,#0xf7d                      = 54h    T
       100004ec8 20 01 80 52     mov        w0,#0x9
       100004ecc c2 06 80 52     mov        w2,#0x36
       100004ed0 19 2b 00 94     bl         clap_builder::error::Error<F>::raw               undefined raw()
                             LAB_100004ed4                                   XREF[2]:     100004d98(j), 100004e44(j)  
       100004ed4 f3 03 00 aa     mov        x19,x0
                             LAB_100004ed8                                   XREF[4]:     100004f94(j), 100005004(j), 
                                                                                          10000508c(j), 1000050a0(j)  
       100004ed8 95 00 80 d2     mov        x21,#0x4
       100004edc 15 00 f0 f2     movk       x21,#0x8000, LSL #48
       100004ee0 94 00 00 14     b          LAB_100005130
                             LAB_100004ee4                                   XREF[1]:     100004da0(j)  
       100004ee4 fa 47 46 f9     ldr        x26,[sp, #local_130[8]]
       100004ee8 48 03 40 f9     ldr        x8,[x26]
       100004eec 69 ae 8c d2     mov        x9,#0x6573
       100004ef0 89 cd ac f2     movk       x9,#0x666c, LSL #16
       100004ef4 89 ae cc f2     movk       x9,#0x6574, LSL #32
       100004ef8 69 8e ee f2     movk       x9,#0x7473, LSL #48
       100004efc 1f 01 09 eb     cmp        x8,x9
       100004f00 81 d5 00 54     b.ne       LAB_1000069b0
       100004f04 e0 03 23 91     add        x0,sp,#0x8c0
       100004f08 21 00 80 52     mov        w1,#0x1
       100004f0c 02 00 80 d2     mov        x2,#0x0
       100004f10 68 30 01 94     bl         clap_builder::parser::matches::arg_matches::Ar   undefined contains_id()
       100004f14 e0 d4 00 37     tbnz       w0,#0x0,LAB_1000069b0
       100004f18 f5 0b 41 b2     orr        x21,xzr,#-0x7ffffffffffffffd
       100004f1c 85 00 00 14     b          LAB_100005130
                             LAB_100004f20                                   XREF[1]:     100004ebc(j)  
       100004f20 bc db 72 a9     ldp        x28,x22,[x29, #local_e8[0]]
       100004f24 14 05 00 90     adrp       x20,0x1000a4000
       100004f28 94 ea 3c 91     add        x20,x20,#0xf3a
       100004f2c a8 a3 03 d1     sub        x8,x29,#0xe8
       100004f30 e0 03 23 91     add        x0,sp,#0x8c0
       100004f34 e1 03 14 aa     mov        x1=>DAT_1000a4f3a,x20                            = 61h    a
       100004f38 c2 00 80 52     mov        w2,#0x6
       100004f3c 53 26 00 94     bl         clap_builder::parser::matches::arg_matches::Ar   undefined try_remove_one()
       100004f40 c8 00 80 52     mov        w8,#0x6
       100004f44 f4 a3 07 a9     stp        x20=>DAT_1000a4f3a,x8,[sp, #local_d38]           = 61h    a
       100004f48 a8 83 51 f8     ldur       x8,[x29, #local_f8[0]]
       100004f4c 1f 09 00 f1     cmp        x8,#0x2
       100004f50 41 db 00 54     b.ne       LAB_100006ab8
       100004f54 a9 03 52 f8     ldur       x9,[x29, #local_f8[8]]
       100004f58 08 00 f0 d2     mov        x8,#-0x8000000000000000
       100004f5c 3f 01 08 eb     cmp        x9,x8
       100004f60 41 05 00 54     b.ne       LAB_100005008
       100004f64 01 05 00 90     adrp       x1,0x1000a4000
       100004f68 21 00 3d 91     add        x1=>DAT_1000a4f40,x1,#0xf40                      = 54h    T
       100004f6c 20 01 80 52     mov        w0,#0x9
       100004f70 02 07 80 52     mov        w2,#0x38
       100004f74 f0 2a 00 94     bl         clap_builder::error::Error<F>::raw               undefined raw()
       100004f78 f4 03 00 aa     mov        x20,x0
       100004f7c b3 00 00 b4     cbz        x19,LAB_100004f90
       100004f80 e0 03 1c aa     mov        x0,x28
       100004f84 e1 03 13 aa     mov        x1,x19
       100004f88 22 00 80 52     mov        w2,#0x1
       100004f8c 46 46 00 94     bl         ___rust_dealloc                                  undefined ___rust_dealloc()
                             LAB_100004f90                                   XREF[1]:     100004f7c(j)  
       100004f90 f3 03 14 aa     mov        x19,x20
       100004f94 d1 ff ff 17     b          LAB_100004ed8
                             LAB_100004f98                                   XREF[1]:     100004d80(j)  
       100004f98 bc db 72 a9     ldp        x28,x22,[x29, #local_e8[0]]
       100004f9c 65 00 00 14     b          LAB_100005130
                             LAB_100004fa0                                   XREF[1]:     100004e2c(j)  
       100004fa0 a8 f3 72 a9     ldp        x8,x28,[x29, #local_e8[0]]
       100004fa4 e8 23 00 f9     str        x8,[sp, #local_d70]
       100004fa8 13 05 00 b0     adrp       x19,0x1000a5000
       100004fac 73 c2 0d 91     add        x19,x19,#0x370
       100004fb0 a8 a3 03 d1     sub        x8,x29,#0xe8
       100004fb4 e0 03 23 91     add        x0,sp,#0x8c0
       100004fb8 e1 03 13 aa     mov        x1=>s_flag_1000a5370,x19                         = "flag"
       100004fbc 82 00 80 52     mov        w2,#0x4
       100004fc0 08 27 00 94     bl         clap_builder::parser::matches::arg_matches::Ar   undefined try_remove_one()
       100004fc4 88 00 80 52     mov        w8,#0x4
       100004fc8 f3 a3 07 a9     stp        x19=>s_flag_1000a5370,x8,[sp, #local_d38]        = "flag"
       100004fcc a8 83 51 f8     ldur       x8,[x29, #local_f8[0]]
       100004fd0 1f 09 00 f1     cmp        x8,#0x2
       100004fd4 61 da 00 54     b.ne       LAB_100006b20
       100004fd8 b6 03 52 f8     ldur       x22,[x29, #local_f8[8]]
       100004fdc 08 00 f0 d2     mov        x8,#-0x8000000000000000
       100004fe0 df 02 08 eb     cmp        x22,x8
       100004fe4 a1 01 00 54     b.ne       LAB_100005018
       100004fe8 01 05 00 90     adrp       x1,0x1000a4000
       100004fec 21 d4 3f 91     add        x1=>DAT_1000a4ff5,x1,#0xff5                      = 54h    T
       100004ff0 20 01 80 52     mov        w0,#0x9
       100004ff4 c2 06 80 52     mov        w2,#0x36
       100004ff8 cf 2a 00 94     bl         clap_builder::error::Error<F>::raw               undefined raw()
       100004ffc f3 03 00 aa     mov        x19,x0
       100005000 95 04 00 b5     cbnz       x21,LAB_100005090
       100005004 b5 ff ff 17     b          LAB_100004ed8
                             LAB_100005008                                   XREF[1]:     100004f60(j)  
       100005008 a8 d3 72 a9     ldp        x8,x20,[x29, #local_e8[0]]
       10000500c e8 a7 06 a9     stp        x8,x9,[sp, #local_d48]
       100005010 f5 07 41 b2     orr        x21,xzr,#-0x7fffffffffffffff
       100005014 47 00 00 14     b          LAB_100005130
                             LAB_100005018                                   XREF[1]:     100004fe4(j)  
       100005018 a9 a3 72 a9     ldp        x9,x8,[x29, #local_e8[0]]
       10000501c e8 a7 06 a9     stp        x8,x9,[sp, #local_d48]
       100005020 13 05 00 90     adrp       x19,0x1000a5000
       100005024 73 ae 00 91     add        x19,x19,#0x2b
       100005028 a8 a3 03 d1     sub        x8,x29,#0xe8
       10000502c e0 03 23 91     add        x0,sp,#0x8c0
       100005030 e1 03 13 aa     mov        x1=>DAT_1000a502b,x19                            = 6Fh    o
       100005034 62 00 80 52     mov        w2,#0x3
       100005038 14 26 00 94     bl         clap_builder::parser::matches::arg_matches::Ar   undefined try_remove_one()
       10000503c 68 00 80 52     mov        w8,#0x3
       100005040 f3 a3 07 a9     stp        x19=>DAT_1000a502b,x8,[sp, #local_d38]           = 6Fh    o
       100005044 a8 83 51 f8     ldur       x8,[x29, #local_f8[0]]
       100005048 1f 09 00 f1     cmp        x8,#0x2
       10000504c e1 d9 00 54     b.ne       LAB_100006b88
       100005050 b4 03 52 f8     ldur       x20,[x29, #local_f8[8]]
       100005054 08 00 f0 d2     mov        x8,#-0x8000000000000000
       100005058 9f 02 08 eb     cmp        x20,x8
       10000505c 41 02 00 54     b.ne       LAB_1000050a4
       100005060 01 05 00 90     adrp       x1,0x1000a5000
       100005064 21 b8 00 91     add        x1=>DAT_1000a502e,x1,#0x2e                       = 54h    T
       100005068 20 01 80 52     mov        w0,#0x9
       10000506c a2 06 80 52     mov        w2,#0x35
       100005070 b1 2a 00 94     bl         clap_builder::error::Error<F>::raw               undefined raw()
       100005074 f3 03 00 aa     mov        x19,x0
       100005078 b6 00 00 b4     cbz        x22,LAB_10000508c
       10000507c e0 3b 40 f9     ldr        x0,[sp, #local_d40]
       100005080 e1 03 16 aa     mov        x1,x22
       100005084 22 00 80 52     mov        w2,#0x1
       100005088 07 46 00 94     bl         ___rust_dealloc                                  undefined ___rust_dealloc()
                             LAB_10000508c                                   XREF[1]:     100005078(j)  
       10000508c 75 f2 ff b4     cbz        x21,LAB_100004ed8
                             LAB_100005090                                   XREF[1]:     100005000(j)  
       100005090 e0 23 40 f9     ldr        x0,[sp, #local_d70]
       100005094 e1 03 15 aa     mov        x1,x21
       100005098 22 00 80 52     mov        w2,#0x1
       10000509c 02 46 00 94     bl         ___rust_dealloc                                  undefined ___rust_dealloc()
       1000050a0 8e ff ff 17     b          LAB_100004ed8
                             LAB_1000050a4                                   XREF[1]:     10000505c(j)  
       1000050a4 a9 a3 72 a9     ldp        x9,x8,[x29, #local_e8[0]]
       1000050a8 e8 a7 04 a9     stp        x8,x9,[sp, #local_d68]
       1000050ac 01 05 00 90     adrp       x1,0x1000a5000
       1000050b0 21 00 0d 91     add        x1=>s_salt_hex_1000a5340,x1,#0x340               = "salt_hex"
       1000050b4 e8 83 02 91     add        x8,sp,#0xa0
       1000050b8 e0 03 23 91     add        x0,sp,#0x8c0
       1000050bc 02 01 80 52     mov        w2,#0x8
       1000050c0 c8 26 00 94     bl         clap_builder::parser::matches::arg_matches::Ar   undefined try_remove_one()
       1000050c4 00 05 00 90     adrp       x0,0x1000a5000
       1000050c8 00 00 0d 91     add        x0=>s_salt_hex_1000a5340,x0,#0x340               = "salt_hex"
       1000050cc a8 a3 03 d1     sub        x8,x29,#0xe8
       1000050d0 e2 83 02 91     add        x2,sp,#0xa0
       1000050d4 01 01 80 52     mov        w1,#0x8
       1000050d8 8d 36 00 94     bl         clap_builder::parser::error::MatchesError::unw   undefined unwrap()
       1000050dc 01 05 00 90     adrp       x1,0x1000a5000
       1000050e0 21 8c 01 91     add        x1=>DAT_1000a5063,x1,#0x63                       = 6Eh    n
       1000050e4 e8 83 02 91     add        x8,sp,#0xa0
       1000050e8 e0 03 23 91     add        x0,sp,#0x8c0
       1000050ec 22 01 80 52     mov        w2,#0x9
       1000050f0 bc 26 00 94     bl         clap_builder::parser::matches::arg_matches::Ar   undefined try_remove_one()
       1000050f4 00 05 00 90     adrp       x0,0x1000a5000
       1000050f8 00 8c 01 91     add        x0=>DAT_1000a5063,x0,#0x63                       = 6Eh    n
       1000050fc a8 83 02 d1     sub        x8,x29,#0xa0
       100005100 e2 83 02 91     add        x2,sp,#0xa0
       100005104 21 01 80 52     mov        w1,#0x9
       100005108 81 36 00 94     bl         clap_builder::parser::error::MatchesError::unw   undefined unwrap()
       10000510c a9 a3 71 a9     ldp        x9,x8,[x29, #local_f8[0]]
       100005110 e8 1f 00 f9     str        x8,[sp, #local_d78]
       100005114 aa 83 52 f8     ldur       x10,[x29, #local_e8[0]]
       100005118 ab 23 76 a9     ldp        x11,x8,[x29, #local_b0[0]]
       10000511c eb a7 05 a9     stp        x11,x9,[sp, #local_d58]
       100005120 e8 13 00 f9     str        x8,[sp, #local_d90]
       100005124 f3 23 40 f9     ldr        x19,[sp, #local_d70]
       100005128 a8 03 57 f8     ldur       x8,[x29, #local_a0]
       10000512c e8 ab 00 a9     stp        x8,x10,[sp, #local_da8]
                             LAB_100005130                                   XREF[4]:     100004ee0(j), 100004f1c(j), 
                                                                                          100004f9c(j), 100005014(j)  
       100005130 e0 03 23 91     add        x0,sp,#0x8c0
       100005134 a5 f5 ff 97     bl         core::ptr::drop_in_place<>                       undefined drop_in_place<clap_bui
       100005138 e1 43 46 f9     ldr        x1,[sp, #local_130[0]]
       10000513c 81 00 00 b4     cbz        x1,LAB_10000514c
       100005140 e0 03 1a aa     mov        x0,x26
       100005144 22 00 80 52     mov        w2,#0x1
       100005148 d7 45 00 94     bl         ___rust_dealloc                                  undefined ___rust_dealloc()
                             LAB_10000514c                                   XREF[1]:     10000513c(j)  
       10000514c bf 02 19 eb     cmp        x21,x25
       100005150 20 c7 00 54     b.eq       LAB_100006a34
       100005154 e0 03 14 91     add        x0,sp,#0x500
       100005158 9c f5 ff 97     bl         core::ptr::drop_in_place<>                       undefined drop_in_place<clap_bui
       10000515c a8 02 41 d2     eor        x8,x21,#-0x8000000000000000
       100005160 49 00 80 52     mov        w9,#0x2
       100005164 1f 11 00 f1     cmp        x8,#0x4
       100005168 08 31 89 9a     csel       x8,x8,x9,cc
       10000516c 1f 05 00 f1     cmp        x8,#0x1
       100005170 cc 11 00 54     b.gt       LAB_1000053a8
       100005174 48 14 00 b5     cbnz       x8,LAB_1000053fc
       100005178 b3 73 36 a9     stp        x19,x28,[x29, #local_b0[0]]
       10000517c b6 03 17 f8     stur       x22,[x29, #local_a0]
       100005180 e0 43 04 91     add        x0,sp,#0x110
       100005184 a1 83 02 d1     sub        x1,x29,#0xa0
       100005188 7d fd ff 97     bl         toknorm::load_assets                             undefined load_assets()
       10000518c f4 d3 40 f9     ldr        x20,[sp, #local_c10]
       100005190 fa 8b 40 f9     ldr        x26,[sp, #local_ca0[0]]
       100005194 08 00 f0 d2     mov        x8,#-0x8000000000000000
       100005198 9f 02 08 eb     cmp        x20,x8
       10000519c 40 17 00 54     b.eq       LAB_100005484
       1000051a0 e8 3b 41 b9     ldr        w8,[sp, #local_c90[24]]
       1000051a4 e9 9f 41 b9     ldr        w9,[sp, #local_c14]
       1000051a8 e8 23 05 b9     str        w8,[sp, #local_890[0]]
       1000051ac e0 82 c0 3c     ldur       q0,[x23, #local_ca0[8]]
       1000051b0 e1 82 c1 3c     ldur       q1,[x23, #local_c90[8]]
       1000051b4 60 87 00 ad     stp        q0,q1,[x27, #local_8b0[0]]
       1000051b8 e0 c2 c5 3c     ldur       q0,[x23, #local_c44[0]]
       1000051bc e1 c2 c6 3c     ldur       q1,[x23, #local_c44[16]]
       1000051c0 61 07 81 3d     str        q1,[x27, #local_4b0[0]]
       1000051c4 e1 c2 c7 3c     ldur       q1,[x23, #local_c24[0]]
       1000051c8 61 0b 81 3d     str        q1,[x27, #local_4a0[0]]
       1000051cc e9 23 09 b9     str        w9,[sp, #local_490]
       1000051d0 e1 c2 c2 3c     ldur       q1,[x23, #local_c90[28]]
       1000051d4 e2 c2 c3 3c     ldur       q2,[x23, #local_c68[4]]
       1000051d8 61 8b 1e ad     stp        q1,q2,[x27, #local_4f0[0]]
       1000051dc e1 c2 c4 3c     ldur       q1,[x23, #local_c58[4]]
       1000051e0 61 83 1f ad     stp        q1,q0,[x27, #local_4d0[0]]
       1000051e4 f5 d7 40 f9     ldr        x21,[sp, #local_c08]
       1000051e8 60 07 c0 3d     ldr        q0,[x27, #local_8b0[0]]
       1000051ec e0 83 8a 3c     stur       q0,[sp, #local_d10[8]]
       1000051f0 e8 8b 42 f9     ldr        x8,[sp, #local_8a0]
       1000051f4 e8 5f 00 f9     str        x8,[sp, #local_cf8]
       1000051f8 fa 53 00 f9     str        x26,[sp, #local_d10[0]]
       1000051fc f7 03 14 91     add        x23,sp,#0x500
       100005200 e8 03 14 91     add        x8,sp,#0x500
       100005204 e0 03 23 91     add        x0,sp,#0x8c0
       100005208 01 04 80 52     mov        w1,#0x20
       10000520c e8 42 00 94     bl         hex::encode                                      undefined encode()
       100005210 f6 ff ff b0     adrp       x22,0x100002000
       100005214 d6 82 2c 91     add        x22,x22,#0xb20
       100005218 b7 db 31 a9     stp        x23,x22=>_<>::fmt,[x29, #local_f8[0]]
       10000521c 28 06 00 f0     adrp       x8,0x1000cc000
       100005220 08 41 0b 91     add        x8,x8,#0x2d0
       100005224 49 00 80 52     mov        w9,#0x2
       100005228 e8 27 11 a9     stp        x8=>PTR_DAT_1000cc2d0,x9,[sp, #local_ca0[0]]     = 1000a4d27
       10000522c a8 a3 03 d1     sub        x8,x29,#0xe8
       100005230 29 00 80 52     mov        w9,#0x1
       100005234 e8 93 00 f9     str        x8,[sp, #local_c90[0]]
       100005238 e9 ff 12 a9     stp        x9,xzr,[sp, #local_c90[8]]
       10000523c e0 43 04 91     add        x0,sp,#0x110
       100005240 c5 eb 01 94     bl         std::io::stdio::_print                           undefined _print()
       100005244 e1 83 42 f9     ldr        x1,[sp, #local_8b0[0]]
       100005248 81 00 00 b4     cbz        x1,LAB_100005258
       10000524c e0 87 42 f9     ldr        x0,[sp, #local_8b0[8]]
       100005250 22 00 80 52     mov        w2,#0x1
       100005254 94 45 00 94     bl         ___rust_dealloc                                  undefined ___rust_dealloc()
                             LAB_100005258                                   XREF[1]:     100005248(j)  
       100005258 e9 03 23 91     add        x9,sp,#0x8c0
       10000525c f7 03 14 91     add        x23,sp,#0x500
       100005260 e8 03 14 91     add        x8,sp,#0x500
       100005264 20 81 00 91     add        x0,x9,#0x20
       100005268 01 04 80 52     mov        w1,#0x20
       10000526c d0 42 00 94     bl         hex::encode                                      undefined encode()
       100005270 b7 db 31 a9     stp        x23,x22=>_<>::fmt,[x29, #local_f8[0]]
       100005274 28 06 00 f0     adrp       x8,0x1000cc000
       100005278 08 c1 0b 91     add        x8,x8,#0x2f0
       10000527c 49 00 80 52     mov        w9,#0x2
       100005280 e8 27 11 a9     stp        x8=>PTR_DAT_1000cc2f0,x9,[sp, #local_ca0[0]]     = 1000a4d3b
       100005284 a8 a3 03 d1     sub        x8,x29,#0xe8
       100005288 29 00 80 52     mov        w9,#0x1
       10000528c e8 93 00 f9     str        x8,[sp, #local_c90[0]]
       100005290 e9 ff 12 a9     stp        x9,xzr,[sp, #local_c90[8]]
       100005294 e0 43 04 91     add        x0,sp,#0x110
       100005298 af eb 01 94     bl         std::io::stdio::_print                           undefined _print()
       10000529c e1 83 42 f9     ldr        x1,[sp, #local_8b0[0]]
       1000052a0 81 00 00 b4     cbz        x1,LAB_1000052b0
       1000052a4 e0 87 42 f9     ldr        x0,[sp, #local_8b0[8]]
       1000052a8 22 00 80 52     mov        w2,#0x1
       1000052ac 7e 45 00 94     bl         ___rust_dealloc                                  undefined ___rust_dealloc()
                             LAB_1000052b0                                   XREF[1]:     1000052a0(j)  
       1000052b0 a8 04 00 b0     adrp       x8,0x10009a000
       1000052b4 08 51 2a 91     add        x8,x8,#0xa94
       1000052b8 f7 03 23 91     add        x23,sp,#0x8c0
       1000052bc e9 82 01 91     add        x9,x23,#0x60
       1000052c0 e9 83 02 f9     str        x9,[sp, #local_8b0[0]]
       1000052c4 e8 87 02 f9     str        x8=>core::fmt::num::imp::_<>::fmt,[sp, #local_
       1000052c8 28 06 00 f0     adrp       x8,0x1000cc000
       1000052cc 08 41 0c 91     add        x8,x8,#0x310
       1000052d0 49 00 80 52     mov        w9,#0x2
       1000052d4 e8 27 11 a9     stp        x8=>PTR_DAT_1000cc310,x9,[sp, #local_ca0[0]]     = 1000a4d56
       1000052d8 e8 03 14 91     add        x8,sp,#0x500
       1000052dc 29 00 80 52     mov        w9,#0x1
       1000052e0 e8 93 00 f9     str        x8,[sp, #local_c90[0]]
       1000052e4 e9 ff 12 a9     stp        x9,xzr,[sp, #local_c90[8]]
       1000052e8 e0 43 04 91     add        x0,sp,#0x110
       1000052ec 9a eb 01 94     bl         std::io::stdio::_print                           undefined _print()
       1000052f0 f8 03 14 91     add        x24,sp,#0x500
       1000052f4 e8 03 14 91     add        x8,sp,#0x500
       1000052f8 e0 02 01 91     add        x0,x23,#0x40
       1000052fc 01 04 80 52     mov        w1,#0x20
       100005300 ab 42 00 94     bl         hex::encode                                      undefined encode()
       100005304 b8 db 31 a9     stp        x24,x22=>_<>::fmt,[x29, #local_f8[0]]
       100005308 28 06 00 f0     adrp       x8,0x1000cc000
       10000530c 08 c1 0c 91     add        x8,x8,#0x330
       100005310 49 00 80 52     mov        w9,#0x2
       100005314 e8 27 11 a9     stp        x8=>PTR_DAT_1000cc330,x9,[sp, #local_ca0[0]]     = 1000a4d61
       100005318 a8 a3 03 d1     sub        x8,x29,#0xe8
       10000531c 29 00 80 52     mov        w9,#0x1
       100005320 e8 93 00 f9     str        x8,[sp, #local_c90[0]]
       100005324 e9 ff 12 a9     stp        x9,xzr,[sp, #local_c90[8]]
       100005328 e0 43 04 91     add        x0,sp,#0x110
       10000532c 8a eb 01 94     bl         std::io::stdio::_print                           undefined _print()
       100005330 e1 83 42 f9     ldr        x1,[sp, #local_8b0[0]]
       100005334 81 00 00 b4     cbz        x1,LAB_100005344
       100005338 e0 87 42 f9     ldr        x0=>core::fmt::num::imp::_<>::fmt,[sp, #local_
       10000533c 22 00 80 52     mov        w2,#0x1
       100005340 59 45 00 94     bl         ___rust_dealloc                                  undefined ___rust_dealloc()
                             LAB_100005344                                   XREF[1]:     100005334(j)  
       100005344 f7 03 14 91     add        x23,sp,#0x500
       100005348 e8 03 14 91     add        x8,sp,#0x500
       10000534c e0 83 02 91     add        x0,sp,#0xa0
       100005350 01 04 80 52     mov        w1,#0x20
       100005354 96 42 00 94     bl         hex::encode                                      undefined encode()
       100005358 b7 db 31 a9     stp        x23,x22=>_<>::fmt,[x29, #local_f8[0]]
       10000535c 28 06 00 f0     adrp       x8,0x1000cc000
       100005360 08 41 0d 91     add        x8,x8,#0x350
       100005364 49 00 80 52     mov        w9,#0x2
       100005368 e8 27 11 a9     stp        x8=>PTR_DAT_1000cc350,x9,[sp, #local_ca0[0]]     = 1000a4d74
       10000536c a8 a3 03 d1     sub        x8,x29,#0xe8
       100005370 29 00 80 52     mov        w9,#0x1
       100005374 e8 93 00 f9     str        x8,[sp, #local_c90[0]]
       100005378 e9 ff 12 a9     stp        x9,xzr,[sp, #local_c90[8]]
       10000537c e0 43 04 91     add        x0,sp,#0x110
       100005380 75 eb 01 94     bl         std::io::stdio::_print                           undefined _print()
       100005384 e1 83 42 f9     ldr        x1,[sp, #local_8b0[0]]
       100005388 81 00 00 b4     cbz        x1,LAB_100005398
       10000538c e0 87 42 f9     ldr        x0=>core::fmt::num::imp::_<>::fmt,[sp, #local_
       100005390 22 00 80 52     mov        w2,#0x1
       100005394 44 45 00 94     bl         ___rust_dealloc                                  undefined ___rust_dealloc()
                             LAB_100005398                                   XREF[1]:     100005388(j)  
       100005398 94 7a 00 b4     cbz        x20,LAB_1000062e8
       10000539c e0 03 15 aa     mov        x0,x21
       1000053a0 e1 03 14 aa     mov        x1,x20
       1000053a4 cf 03 00 14     b          LAB_1000062e0
                             LAB_1000053a8                                   XREF[1]:     100005170(j)  
       1000053a8 1f 09 00 f1     cmp        x8,#0x2
       1000053ac 41 07 00 54     b.ne       LAB_100005494
       1000053b0 f5 cf 07 a9     stp        x21,x19,[sp, #local_d38]
       1000053b4 fc 47 00 f9     str        x28,[sp, #local_d28]
       1000053b8 f4 43 06 f9     str        x20,[sp, #local_130[0]]
       1000053bc e8 f3 44 a9     ldp        x8,x28,[sp, #local_d68]
       1000053c0 fc 47 06 f9     str        x28,[sp, #local_130[8]]
       1000053c4 e8 4b 06 f9     str        x8,[sp, #local_120]
       1000053c8 e0 43 04 91     add        x0,sp,#0x110
       1000053cc e1 e3 01 91     add        x1,sp,#0x78
       1000053d0 cc fd ff 97     bl         toknorm::read_text_lossy                         undefined read_text_lossy()
       1000053d4 e9 6b 51 a9     ldp        x9,x26,[sp, #local_ca0[0]]
       1000053d8 08 00 f0 d2     mov        x8,#-0x8000000000000000
       1000053dc 3f 01 08 eb     cmp        x9,x8
       1000053e0 c1 12 00 54     b.ne       LAB_100005638
       1000053e4 28 00 80 52     mov        w8,#0x1
       1000053e8 38 00 80 52     mov        w24,#0x1
       1000053ec e1 df 45 a9     ldp        x1,x23,[sp, #local_d58]
       1000053f0 3f f8 40 f2     tst        x1,#0x7fffffffffffffff
       1000053f4 21 83 00 54     b.ne       LAB_100006458
       1000053f8 1c 04 00 14     b          LAB_100006468
                             LAB_1000053fc                                   XREF[1]:     100005174(j)  
       1000053fc f3 f3 07 a9     stp        x19,x28,[sp, #local_d38]
       100005400 f6 47 00 f9     str        x22,[sp, #local_d28]
       100005404 e8 a7 46 a9     ldp        x8,x9,[sp, #local_d48]
       100005408 e9 43 06 f9     str        x9,[sp, #local_130[0]]
       10000540c e8 47 06 f9     str        x8,[sp, #local_130[8]]
       100005410 f4 4b 06 f9     str        x20,[sp, #local_120]
       100005414 e0 43 04 91     add        x0,sp,#0x110
       100005418 e1 e3 01 91     add        x1,sp,#0x78
       10000541c b9 fd ff 97     bl         toknorm::read_text_lossy                         undefined read_text_lossy()
       100005420 f5 6b 51 a9     ldp        x21,x26,[sp, #local_ca0[0]]
       100005424 08 00 f0 d2     mov        x8,#-0x8000000000000000
       100005428 bf 02 08 eb     cmp        x21,x8
       10000542c 20 02 00 54     b.eq       LAB_100005470
       100005430 fa 33 00 f9     str        x26,[sp, #local_d50]
       100005434 f4 93 40 f9     ldr        x20,[sp, #local_c90[0]]
       100005438 e0 43 04 91     add        x0,sp,#0x110
       10000543c e1 03 32 91     add        x1,sp,#0xc80
       100005440 cf fc ff 97     bl         toknorm::load_assets                             undefined load_assets()
       100005444 e9 d3 40 f9     ldr        x9,[sp, #local_c10]
       100005448 fa 8b 40 f9     ldr        x26,[sp, #local_ca0[0]]
       10000544c 08 00 f0 d2     mov        x8,#-0x8000000000000000
       100005450 e9 2f 00 f9     str        x9,[sp, #local_d58]
       100005454 3f 01 08 eb     cmp        x9,x8
       100005458 a1 29 00 54     b.ne       LAB_10000598c
       10000545c b5 00 00 b4     cbz        x21,LAB_100005470
       100005460 e0 33 40 f9     ldr        x0,[sp, #local_d50]
       100005464 e1 03 15 aa     mov        x1,x21
       100005468 22 00 80 52     mov        w2,#0x1
       10000546c 0e 45 00 94     bl         ___rust_dealloc                                  undefined ___rust_dealloc()
                             LAB_100005470                                   XREF[2]:     10000542c(j), 10000545c(j)  
       100005470 e1 3b 40 f9     ldr        x1,[sp, #local_d40]
       100005474 81 00 00 b4     cbz        x1,LAB_100005484
       100005478 e0 37 40 f9     ldr        x0,[sp, #local_d48]
       10000547c 22 00 80 52     mov        w2,#0x1
       100005480 09 45 00 94     bl         ___rust_dealloc                                  undefined ___rust_dealloc()
                             LAB_100005484                                   XREF[2]:     10000519c(j), 100005474(j)  
       100005484 f3 81 00 b4     cbz        x19,LAB_1000064c0
       100005488 e0 03 1c aa     mov        x0,x28
       10000548c e1 03 13 aa     mov        x1,x19
       100005490 0a 04 00 14     b          LAB_1000064b8
                             LAB_100005494                                   XREF[1]:     1000053ac(j)  
       100005494 40 e4 02 4f     movi       v0.16B,#0x42
       100005498 60 83 00 ad     stp        q0,q0,[x27, #local_8b0[0]]
       10000549c e1 04 00 f0     adrp       x1,0x1000a4000
       1000054a0 21 a4 39 91     add        x1=>DAT_1000a4e69,x1,#0xe69                      = 41h    A
       1000054a4 e0 43 04 91     add        x0,sp,#0x110
       1000054a8 e3 03 14 91     add        x3,sp,#0x500
       1000054ac 22 04 80 52     mov        w2,#0x21
       1000054b0 51 f6 ff 97     bl         toknorm::compute_all                             undefined compute_all()
       1000054b4 e0 06 42 ad     ldp        q0,q1,[x23, #local_c68[8]]
       1000054b8 60 07 81 3d     str        q0,[x27, #local_4b0[0]]
       1000054bc 61 0b 81 3d     str        q1,[x27, #local_4a0[0]]
       1000054c0 e8 73 41 b9     ldr        w8,[sp, #local_c44[4]]
       1000054c4 e8 23 09 b9     str        w8,[sp, #local_490]
       1000054c8 e0 06 40 ad     ldp        q0,q1,[x23]=>local_ca0[0]
       1000054cc 60 87 1e ad     stp        q0,q1,[x27, #local_4f0[0]]
       1000054d0 e1 02 41 ad     ldp        q1,q0,[x23, #local_c90[16]]
       1000054d4 61 83 1f ad     stp        q1,q0,[x27, #local_4d0[0]]
       1000054d8 f4 cf 57 a9     ldp        x20,x19,[sp, #local_c44[12]]
       1000054dc f6 83 02 91     add        x22,sp,#0xa0
       1000054e0 e8 83 02 91     add        x8,sp,#0xa0
       1000054e4 e0 03 23 91     add        x0,sp,#0x8c0
       1000054e8 01 04 80 52     mov        w1,#0x20
       1000054ec 30 42 00 94     bl         hex::encode                                      undefined encode()
       1000054f0 f5 ff ff b0     adrp       x21,0x100002000
       1000054f4 b5 82 2c 91     add        x21,x21,#0xb20
       1000054f8 b6 57 36 a9     stp        x22,x21=>_<>::fmt,[x29, #local_b0[0]]
       1000054fc 28 06 00 f0     adrp       x8,0x1000cc000
       100005500 08 41 13 91     add        x8,x8,#0x4d0
       100005504 49 00 80 52     mov        w9,#0x2
       100005508 e8 27 11 a9     stp        x8=>PTR_DAT_1000cc4d0,x9,[sp, #local_ca0[0]]     = 1000a4e8a
       10000550c a8 83 02 d1     sub        x8,x29,#0xa0
       100005510 29 00 80 52     mov        w9,#0x1
       100005514 e8 93 00 f9     str        x8,[sp, #local_c90[0]]
       100005518 e9 ff 12 a9     stp        x9,xzr,[sp, #local_c90[8]]
       10000551c e0 43 04 91     add        x0,sp,#0x110
       100005520 0d eb 01 94     bl         std::io::stdio::_print                           undefined _print()
       100005524 e1 53 40 f9     ldr        x1,[sp, #local_d10[0]]
       100005528 81 00 00 b4     cbz        x1,LAB_100005538
       10000552c e0 57 40 f9     ldr        x0,[sp, #local_d10[8]]
       100005530 22 00 80 52     mov        w2,#0x1
       100005534 dc 44 00 94     bl         ___rust_dealloc                                  undefined ___rust_dealloc()
                             LAB_100005538                                   XREF[1]:     100005528(j)  
       100005538 e9 03 23 91     add        x9,sp,#0x8c0
       10000553c f6 83 02 91     add        x22,sp,#0xa0
       100005540 e8 83 02 91     add        x8,sp,#0xa0
       100005544 20 81 00 91     add        x0,x9,#0x20
       100005548 01 04 80 52     mov        w1,#0x20
       10000554c 18 42 00 94     bl         hex::encode                                      undefined encode()
       100005550 b6 57 36 a9     stp        x22,x21=>_<>::fmt,[x29, #local_b0[0]]
       100005554 28 06 00 f0     adrp       x8,0x1000cc000
       100005558 08 c1 13 91     add        x8,x8,#0x4f0
       10000555c 49 00 80 52     mov        w9,#0x2
       100005560 e8 27 11 a9     stp        x8=>PTR_DAT_1000cc4f0,x9,[sp, #local_ca0[0]]     = 1000a4e9c
       100005564 a8 83 02 d1     sub        x8,x29,#0xa0
       100005568 29 00 80 52     mov        w9,#0x1
       10000556c e8 93 00 f9     str        x8,[sp, #local_c90[0]]
       100005570 e9 ff 12 a9     stp        x9,xzr,[sp, #local_c90[8]]
       100005574 e0 43 04 91     add        x0,sp,#0x110
       100005578 f7 ea 01 94     bl         std::io::stdio::_print                           undefined _print()
       10000557c e1 53 40 f9     ldr        x1,[sp, #local_d10[0]]
       100005580 81 00 00 b4     cbz        x1,LAB_100005590
       100005584 e0 57 40 f9     ldr        x0,[sp, #local_d10[8]]
       100005588 22 00 80 52     mov        w2,#0x1
       10000558c c6 44 00 94     bl         ___rust_dealloc                                  undefined ___rust_dealloc()
                             LAB_100005590                                   XREF[1]:     100005580(j)  
       100005590 e9 03 23 91     add        x9,sp,#0x8c0
       100005594 f6 83 02 91     add        x22,sp,#0xa0
       100005598 e8 83 02 91     add        x8,sp,#0xa0
       10000559c 20 01 01 91     add        x0,x9,#0x40
       1000055a0 01 04 80 52     mov        w1,#0x20
       1000055a4 02 42 00 94     bl         hex::encode                                      undefined encode()
       1000055a8 b6 57 36 a9     stp        x22,x21=>_<>::fmt,[x29, #local_b0[0]]
       1000055ac 28 06 00 f0     adrp       x8,0x1000cc000
       1000055b0 08 41 14 91     add        x8,x8,#0x510
       1000055b4 49 00 80 52     mov        w9,#0x2
       1000055b8 e8 27 11 a9     stp        x8=>PTR_DAT_1000cc510,x9,[sp, #local_ca0[0]]     = 1000a4eb0
       1000055bc a8 83 02 d1     sub        x8,x29,#0xa0
       1000055c0 29 00 80 52     mov        w9,#0x1
       1000055c4 e8 93 00 f9     str        x8,[sp, #local_c90[0]]
       1000055c8 e9 ff 12 a9     stp        x9,xzr,[sp, #local_c90[8]]
       1000055cc e0 43 04 91     add        x0,sp,#0x110
       1000055d0 e1 ea 01 94     bl         std::io::stdio::_print                           undefined _print()
       1000055d4 e1 53 40 f9     ldr        x1,[sp, #local_d10[0]]
       1000055d8 81 00 00 b4     cbz        x1,LAB_1000055e8
       1000055dc e0 57 40 f9     ldr        x0,[sp, #local_d10[8]]
       1000055e0 22 00 80 52     mov        w2,#0x1
       1000055e4 b0 44 00 94     bl         ___rust_dealloc                                  undefined ___rust_dealloc()
                             LAB_1000055e8                                   XREF[1]:     1000055d8(j)  
       1000055e8 a8 04 00 b0     adrp       x8,0x10009a000
       1000055ec 08 51 2a 91     add        x8,x8,#0xa94
       1000055f0 e9 03 23 91     add        x9,sp,#0x8c0
       1000055f4 29 81 01 91     add        x9,x9,#0x60
       1000055f8 e9 23 0a a9     stp        x9,x8=>core::fmt::num::imp::_<>::fmt,[sp, #loc
       1000055fc 28 06 00 f0     adrp       x8,0x1000cc000
       100005600 08 c1 14 91     add        x8,x8,#0x530
       100005604 49 00 80 52     mov        w9,#0x2
       100005608 e8 27 11 a9     stp        x8=>PTR_DAT_1000cc530,x9,[sp, #local_ca0[0]]     = 1000a4ebc
       10000560c e8 83 02 91     add        x8,sp,#0xa0
       100005610 29 00 80 52     mov        w9,#0x1
       100005614 e8 93 00 f9     str        x8,[sp, #local_c90[0]]
       100005618 e9 ff 12 a9     stp        x9,xzr,[sp, #local_c90[8]]
       10000561c e0 43 04 91     add        x0,sp,#0x110
       100005620 cd ea 01 94     bl         std::io::stdio::_print                           undefined _print()
       100005624 d4 66 00 b4     cbz        x20,LAB_1000062fc
       100005628 81 f6 7e d3     lsl        x1,x20,#0x2
       10000562c e0 03 13 aa     mov        x0,x19
       100005630 82 00 80 52     mov        w2,#0x4
       100005634 31 03 00 14     b          LAB_1000062f8
                             LAB_100005638                                   XREF[1]:     1000053e0(j)  
       100005638 e9 1b 00 f9     str        x9,[sp, #local_d80]
       10000563c f9 93 40 f9     ldr        x25,[sp, #local_c90[0]]
       100005640 e9 33 40 f9     ldr        x9,[sp, #local_d50]
       100005644 3f 01 08 eb     cmp        x9,x8
       100005648 e8 17 9f 1a     cset       w8,eq
       10000564c e8 2f 00 b9     str        w8,[sp, #local_d84]
       100005650 41 16 00 54     b.ne       LAB_100005918
       100005654 f4 0f 00 f9     str        x20,[sp, #local_d98]
       100005658 00 e4 00 6f     movi       v0.2D,#0x0
       10000565c e0 02 00 ad     stp        q0,q0,[x23]=>local_ca0[0]
       100005660 34 00 80 52     mov        w20,#0x1
       100005664 1c 4e 00 94     bl         rand::rngs::thread::thread_rng                   undefined thread_rng()
       100005668 e0 63 04 f9     str        x0,[sp, #local_4f0[0]]
       10000566c e0 03 23 91     add        x0,sp,#0x8c0
       100005670 e1 43 04 91     add        x1,sp,#0x110
       100005674 02 04 80 52     mov        w2,#0x20
       100005678 3a 4e 00 94     bl         _<>::fill_bytes                                  undefined fill_bytes()
       10000567c e8 63 44 f9     ldr        x8,[sp, #local_4f0[0]]
       100005680 09 01 40 f9     ldr        x9,[x8]
       100005684 29 05 00 f1     subs       x9,x9,#0x1
       100005688 09 01 00 f9     str        x9,[x8]
       10000568c 61 00 00 54     b.ne       LAB_100005698
       100005690 e0 03 23 91     add        x0,sp,#0x8c0
       100005694 5b 38 00 94     bl         alloc::rc::Rc<T,A>::drop_slow                    undefined drop_slow()
                             LAB_100005698                                   XREF[1]:     10000568c(j)  
       100005698 e0 06 40 ad     ldp        q0,q1,[x23]=>local_ca0[0]
       10000569c a8 03 04 d1     sub        x8,x29,#0x100
       1000056a0 00 05 02 ad     stp        q0,q1,[x8, #local_d0[0]]
                             LAB_1000056a4                                   XREF[2]:     100006560(j), 100006574(j)  
       1000056a4 08 00 f0 d2     mov        x8,#-0x8000000000000000
       1000056a8 e9 2f 40 f9     ldr        x9,[sp, #local_d58]
       1000056ac 3f 01 08 eb     cmp        x9,x8
       1000056b0 e8 17 9f 1a     cset       w8,eq
       1000056b4 e8 23 00 f9     str        x8,[sp, #local_d70]
       1000056b8 e1 4a 00 54     b.ne       LAB_100006014
       1000056bc ff 1b 01 b9     str        wzr,[sp, #local_ca0[8]]
       1000056c0 ff 8b 00 f9     str        xzr,[sp, #local_ca0[0]]
       1000056c4 34 00 80 52     mov        w20,#0x1
       1000056c8 03 4e 00 94     bl         rand::rngs::thread::thread_rng                   undefined thread_rng()
       1000056cc e0 63 04 f9     str        x0,[sp, #local_4f0[0]]
       1000056d0 e0 03 23 91     add        x0,sp,#0x8c0
       1000056d4 e1 43 04 91     add        x1,sp,#0x110
       1000056d8 82 01 80 52     mov        w2,#0xc
       1000056dc 21 4e 00 94     bl         _<>::fill_bytes                                  undefined fill_bytes()
       1000056e0 e8 63 44 f9     ldr        x8,[sp, #local_4f0[0]]
       1000056e4 09 01 40 f9     ldr        x9,[x8]
       1000056e8 29 05 00 f1     subs       x9,x9,#0x1
       1000056ec 09 01 00 f9     str        x9,[x8]
       1000056f0 61 00 00 54     b.ne       LAB_1000056fc
       1000056f4 e0 03 23 91     add        x0,sp,#0x8c0
       1000056f8 42 38 00 94     bl         alloc::rc::Rc<T,A>::drop_slow                    undefined drop_slow()
                             LAB_1000056fc                                   XREF[1]:     1000056f0(j)  
       1000056fc e8 8b 40 f9     ldr        x8,[sp, #local_ca0[0]]
       100005700 e8 7b 02 f9     str        x8,[sp, #local_8c0[0]]
       100005704 e8 1b 41 b9     ldr        w8,[sp, #local_ca0[8]]
       100005708 e8 fb 04 b9     str        w8,[sp, #local_8c0[8]]
                             LAB_10000570c                                   XREF[2]:     1000060d8(j), 1000060ec(j)  
       10000570c e0 43 04 91     add        x0,sp,#0x110
       100005710 a3 03 03 d1     sub        x3,x29,#0xc0
       100005714 e8 23 40 f9     ldr        x8,[sp, #local_d70]
       100005718 f4 03 08 aa     mov        x20,x8
       10000571c e1 03 1a aa     mov        x1,x26
       100005720 e2 03 19 aa     mov        x2,x25
       100005724 b4 f5 ff 97     bl         toknorm::compute_all                             undefined compute_all()
       100005728 e0 06 42 ad     ldp        q0,q1,[x23, #local_c68[8]]
       10000572c e0 07 07 ad     stp        q0,q1,[sp, #local_cd0[0]]
       100005730 e8 73 41 b9     ldr        w8,[sp, #local_c44[4]]
       100005734 e8 03 01 b9     str        w8,[sp, #local_cb0]
       100005738 e0 06 40 ad     ldp        q0,q1,[x23]=>local_ca0[0]
       10000573c e0 07 05 ad     stp        q0,q1,[sp, #local_d10[0]]
       100005740 e1 02 41 ad     ldp        q1,q0,[x23, #local_c90[16]]
       100005744 e1 03 06 ad     stp        q1,q0,[sp, #local_cf0[0]]
       100005748 f7 a3 57 a9     ldp        x23,x8,[sp, #local_c44[12]]
       10000574c e8 0b 00 f9     str        x8,[sp, #local_da0]
       100005750 68 06 00 f0     adrp       x8,0x1000d4000
       100005754 08 e5 14 91     add        x8,x8,#0x539
       100005758 1f 01 40 39     ldrb       wzr,[x8]=>___rust_no_alloc_shim_is_unstable
       10000575c 00 0c 80 52     mov        w0,#0x60
       100005760 21 00 80 52     mov        w1,#0x1
       100005764 4f 44 00 94     bl         ___rust_alloc                                    undefined ___rust_alloc()
       100005768 40 a4 00 b4     cbz        x0,LAB_100006bf0
       10000576c f4 03 00 aa     mov        x20,x0
       100005770 e0 07 45 ad     ldp        q0,q1,[sp, #local_d10[0]]
       100005774 00 04 00 ad     stp        q0,q1,[x0]
       100005778 e0 07 46 ad     ldp        q0,q1,[sp, #local_cf0[0]]
       10000577c 00 04 01 ad     stp        q0,q1,[x0, #0x20]
       100005780 e0 07 47 ad     ldp        q0,q1,[sp, #local_cd0[0]]
       100005784 00 04 02 ad     stp        q0,q1,[x0, #0x40]
       100005788 a0 a3 03 d1     sub        x0,x29,#0xe8
       10000578c e1 03 14 aa     mov        x1,x20
       100005790 02 0c 80 52     mov        w2,#0x60
       100005794 e7 f4 ff 97     bl         toknorm::sha256                                  undefined sha256()
       100005798 e0 03 14 aa     mov        x0,x20
       10000579c 01 0c 80 52     mov        w1,#0x60
       1000057a0 22 00 80 52     mov        w2,#0x1
       1000057a4 40 44 00 94     bl         ___rust_dealloc                                  undefined ___rust_dealloc()
       1000057a8 e8 03 23 91     add        x8,sp,#0x8c0
       1000057ac a0 a3 03 d1     sub        x0,x29,#0xe8
       1000057b0 a1 6b 01 94     bl         aes::soft::fixslice::aes256_key_schedule         undefined aes256_key_schedule()
       1000057b4 e0 03 14 91     add        x0,sp,#0x500
       1000057b8 e1 03 23 91     add        x1,sp,#0x8c0
       1000057bc 02 78 80 52     mov        w2,#0x3c0
       1000057c0 7f 65 02 94     bl         _memcpy                                          void * _memcpy(void * param_1, v
       1000057c4 00 e4 00 6f     movi       v0.2D,#0x0
       1000057c8 a8 03 04 d1     sub        x8,x29,#0x100
       1000057cc 00 01 04 ad     stp        q0,q0,[x8, #local_90[0]]
       1000057d0 00 01 03 ad     stp        q0,q0,[x8, #local_b0[0]]
       1000057d4 e8 03 23 91     add        x8,sp,#0x8c0
       1000057d8 e0 03 14 91     add        x0,sp,#0x500
       1000057dc a1 83 02 d1     sub        x1,x29,#0xa0
       1000057e0 4f 6d 01 94     bl         aes::soft::fixslice::aes256_encrypt              undefined aes256_encrypt()
       1000057e4 e8 03 63 39     ldrb       w8,[sp, #local_4f0[0]]
       1000057e8 e9 07 63 39     ldrb       w9,[sp, #local_4f0[1]]
       1000057ec ea 0b 63 39     ldrb       w10,[sp, #local_4f0[2]]
       1000057f0 eb 0f 63 39     ldrb       w11,[sp, #local_4f0[3]]
       1000057f4 ec 13 63 39     ldrb       w12,[sp, #local_4f0[4]]
       1000057f8 ed 17 63 39     ldrb       w13,[sp, #local_4f0[5]]
       1000057fc ee 1b 63 39     ldrb       w14,[sp, #local_4f0[6]]
       100005800 ef 1f 63 39     ldrb       w15,[sp, #local_4f0[7]]
       100005804 f0 23 63 39     ldrb       w16,[sp, #local_4f0[8]]
       100005808 f1 27 63 39     ldrb       w17,[sp, #local_4f0[9]]
       10000580c 00 1d 48 d3     lsl        x0,x8,#0x38
       100005810 4a 5d 58 d3     lsl        x10,x10,#0x28
       100005814 10 1e 48 d3     lsl        x16,x16,#0x38
       100005818 e1 2b 63 39     ldrb       w1,[sp, #local_4f0[10]]
       10000581c e2 2f 63 39     ldrb       w2,[sp, #local_4f0[11]]
       100005820 e3 33 63 39     ldrb       w3,[sp, #local_4f0[12]]
       100005824 e4 37 63 39     ldrb       w4,[sp, #local_4f0[13]]
       100005828 e5 3b 63 39     ldrb       w5,[sp, #local_4f0[14]]
       10000582c e6 3f 63 39     ldrb       w6,[sp, #local_4f0[15]]
       100005830 49 c1 09 aa     orr        x9,x10,x9, LSL #0x30
       100005834 29 81 0b aa     orr        x9,x9,x11, LSL #0x20
       100005838 29 61 0c aa     orr        x9,x9,x12, LSL #0x18
       10000583c 29 41 0d aa     orr        x9,x9,x13, LSL #0x10
       100005840 29 21 0e aa     orr        x9,x9,x14, LSL #0x8
       100005844 0a c2 11 aa     orr        x10,x16,x17, LSL #0x30
       100005848 4a a1 01 aa     orr        x10,x10,x1, LSL #0x28
       10000584c 4a 81 02 aa     orr        x10,x10,x2, LSL #0x20
       100005850 4a 61 03 aa     orr        x10,x10,x3, LSL #0x18
       100005854 4a 41 04 aa     orr        x10,x10,x4, LSL #0x10
       100005858 4a 01 06 aa     orr        x10,x10,x6
       10000585c eb 01 00 aa     orr        x11,x15,x0
       100005860 29 01 0b aa     orr        x9,x9,x11
       100005864 08 fd 47 d3     lsr        x8,x8,#0x7
       100005868 ab d8 77 d3     lsl        x11,x5,#0x9
       10000586c 6a 05 0a aa     orr        x10,x11,x10, LSL #0x1
       100005870 29 fd d0 93     extr       x9,x9,x16,#0x3f
       100005874 0b 00 41 92     and        x11,x0,#-0x8000000000000000
       100005878 6b f9 08 aa     orr        x11,x11,x8, LSL #0x3e
       10000587c 6b e5 08 aa     orr        x11,x11,x8, LSL #0x39
       100005880 29 01 0b ca     eor        x9,x9,x11
       100005884 48 01 08 aa     orr        x8,x10,x8
       100005888 e8 63 04 f9     str        x8,[sp, #local_4f0[0]]
       10000588c e9 67 04 f9     str        x9,[sp, #local_4f0[8]]
       100005890 e8 43 04 91     add        x8,sp,#0x110
       100005894 08 01 0f 91     add        x8,x8,#0x3c0
       100005898 e0 03 23 91     add        x0,sp,#0x8c0
       10000589c 01 00 80 d2     mov        x1,#0x0
       1000058a0 02 00 80 d2     mov        x2,#0x0
       1000058a4 25 6a 01 94     bl         polyval::backend::soft::Polyval::new_with_init   undefined new_with_init_block()
       1000058a8 e0 43 04 91     add        x0,sp,#0x110
       1000058ac e1 03 14 91     add        x1,sp,#0x500
       1000058b0 02 78 80 52     mov        w2,#0x3c0
       1000058b4 42 65 02 94     bl         _memcpy                                          void * _memcpy(void * param_1, v
       1000058b8 e8 03 14 91     add        x8,sp,#0x500
       1000058bc e0 43 04 91     add        x0,sp,#0x110
       1000058c0 e1 c3 13 91     add        x1,sp,#0x4f0
       1000058c4 e3 8b 46 a9     ldp        x3,x2,[sp, #local_d48]
       1000058c8 f4 0f 40 f9     ldr        x20,[sp, #local_d98]
       1000058cc fc 22 00 94     bl         _<>::encrypt                                     undefined encrypt()
       1000058d0 f8 83 42 f9     ldr        x24,[sp, #local_8b0[0]]
       1000058d4 08 00 f0 d2     mov        x8,#-0x8000000000000000
       1000058d8 1f 03 08 eb     cmp        x24,x8
       1000058dc e2 27 40 f9     ldr        x2,[sp, #local_d68]
       1000058e0 01 42 00 54     b.ne       LAB_100006120
       1000058e4 28 06 00 f0     adrp       x8,0x1000cc000
       1000058e8 08 c1 11 91     add        x8,x8,#0x470
       1000058ec 29 00 80 52     mov        w9,#0x1
       1000058f0 e8 63 04 f9     str        x8=>PTR_DAT_1000cc470,[sp, #local_4f0[0]]        = 1000a4e3b
       1000058f4 e9 67 04 f9     str        x9,[sp, #local_4f0[8]]
       1000058f8 08 01 80 52     mov        w8,#0x8
       1000058fc ff 73 04 f9     str        xzr,[sp, #local_4d0[0]]
       100005900 e8 6b 04 f9     str        x8,[sp, #local_4e0]
       100005904 ff 6f 04 f9     str        xzr,[sp, #local_4d8]
       100005908 e0 03 23 91     add        x0,sp,#0x8c0
       10000590c 81 59 02 94     bl         anyhow::__private::format_err                    undefined format_err()
       100005910 fb 03 00 aa     mov        x27,x0
       100005914 a8 02 00 14     b          LAB_1000063b4
                             LAB_100005918                                   XREF[1]:     100005650(j)  
       100005918 e0 1f 40 f9     ldr        x0,[sp, #local_d78]
       10000591c e1 0b 40 f9     ldr        x1,[sp, #local_da0]
       100005920 2c 42 00 94     bl         core::str::_<impl_str>::trim_matches             undefined trim_matches()
       100005924 61 3e 00 37     tbnz       w1,#0x0,LAB_1000060f0
       100005928 68 00 80 52     mov        w8,#0x3
       10000592c a8 83 11 b8     stur       w8,[x29, #local_f8[0]]
       100005930 e0 07 11 a9     stp        x0,x1,[sp, #local_ca0[0]]
       100005934 e8 04 00 f0     adrp       x8,0x1000a4000
       100005938 00 99 c2 3d     ldr        q0,[x8, #0xa60]=>DAT_1000a4a60                   = 02h
       10000593c e0 06 80 3d     str        q0,[x23, #local_c90[0]]
       100005940 a8 a3 03 d1     sub        x8,x29,#0xe8
       100005944 e8 9b 00 f9     str        x8,[sp, #local_c90[16]]
       100005948 41 06 00 90     adrp       x1,0x1000cd000
       10000594c 21 40 23 91     add        x1=>_anon.6853dccacecbe2e060835573c6593093.1,x   = 1000a5cd0
       100005950 e8 03 23 91     add        x8,sp,#0x8c0
       100005954 e0 43 04 91     add        x0,sp,#0x110
       100005958 49 1b 00 94     bl         _<>::from_iter                                   undefined from_iter()
       10000595c a8 83 51 b8     ldur       w8,[x29, #local_f8[0]]
       100005960 1f 0d 00 71     cmp        w8,#0x3
       100005964 41 41 00 54     b.ne       LAB_10000618c
       100005968 f9 53 01 a9     stp        x25,x20,[sp, #local_da0]
       10000596c f4 63 44 f9     ldr        x20,[sp, #local_4f0[0]]
       100005970 f9 67 44 f9     ldr        x25,[sp, #local_4f0[8]]
       100005974 fc 6b 44 f9     ldr        x28,[sp, #local_4e0]
       100005978 08 00 f0 d2     mov        x8,#-0x8000000000000000
       10000597c 9f 02 08 eb     cmp        x20,x8
       100005980 21 5b 00 54     b.ne       LAB_1000064e4
       100005984 f4 0f 40 f9     ldr        x20,[sp, #local_d98]
       100005988 07 02 00 14     b          LAB_1000061a4
                             LAB_10000598c                                   XREF[1]:     100005458(j)  
       10000598c e0 82 c0 3c     ldur       q0,[x23, #local_ca0[8]]
       100005990 e1 82 c1 3c     ldur       q1,[x23, #local_c90[8]]
       100005994 60 87 1e ad     stp        q0,q1,[x27, #local_4f0[0]]
       100005998 e8 3b 41 b9     ldr        w8,[sp, #local_c90[24]]
       10000599c ea 9f 41 b9     ldr        w10,[sp, #local_c14]
       1000059a0 e8 e3 08 b9     str        w8,[sp, #local_4d0[0]]
       1000059a4 e0 c2 c4 3c     ldur       q0,[x23, #local_c58[4]]
       1000059a8 e1 c2 c5 3c     ldur       q1,[x23, #local_c44[0]]
       1000059ac e0 07 06 ad     stp        q0,q1,[sp, #local_cf0[0]]
       1000059b0 e0 c2 c6 3c     ldur       q0,[x23, #local_c44[16]]
       1000059b4 e1 c2 c7 3c     ldur       q1,[x23, #local_c24[0]]
       1000059b8 e0 07 07 ad     stp        q0,q1,[sp, #local_cd0[0]]
       1000059bc e0 c2 c2 3c     ldur       q0,[x23, #local_c90[28]]
       1000059c0 e1 c2 c3 3c     ldur       q1,[x23, #local_c68[4]]
       1000059c4 e0 07 05 ad     stp        q0,q1,[sp, #local_d10[0]]
       1000059c8 e8 6b 44 f9     ldr        x8,[sp, #local_4e0]
       1000059cc e9 6f 44 f9     ldr        x9,[sp, #local_4d8]
       1000059d0 e9 4b 00 f9     str        x9,[sp, #local_d20]
       1000059d4 e9 e3 48 b9     ldr        w9,[sp, #local_4d0[0]]
       1000059d8 e9 9b 00 b9     str        w9,[sp, #local_d18]
       1000059dc eb a7 5a a9     ldp        x11,x9,[sp, #local_c08]
       1000059e0 eb 27 00 f9     str        x11,[sp, #local_d68]
       1000059e4 e9 1b 00 f9     str        x9,[sp, #local_d80]
       1000059e8 60 f7 c0 3d     ldr        q0,[x27, #local_4f0[0]]
       1000059ec 00 83 84 3c     stur       q0,[x24, #local_d0[8]]
       1000059f0 a8 83 15 f8     stur       x8,[x29, #local_d0[24]]
       1000059f4 ba 03 14 f8     stur       x26,[x29, #local_d0[0]]
       1000059f8 ea 53 00 b9     str        w10,[sp, #local_d60]
       1000059fc ea 03 01 b9     str        w10,[sp, #local_cb0]
       100005a00 e0 43 04 91     add        x0,sp,#0x110
       100005a04 a3 03 03 d1     sub        x3,x29,#0xc0
       100005a08 e1 33 40 f9     ldr        x1,[sp, #local_d50]
       100005a0c e2 03 14 aa     mov        x2,x20
       100005a10 f9 f4 ff 97     bl         toknorm::compute_all                             undefined compute_all()
       100005a14 e0 06 42 ad     ldp        q0,q1,[x23, #local_c68[8]]
       100005a18 60 87 02 ad     stp        q0,q1,[x27, #local_870[0]]
       100005a1c e8 73 41 b9     ldr        w8,[sp, #local_c44[4]]
       100005a20 e8 63 05 b9     str        w8,[sp, #local_850]
       100005a24 e0 06 40 ad     ldp        q0,q1,[x23]=>local_ca0[0]
       100005a28 60 87 00 ad     stp        q0,q1,[x27, #local_8b0[0]]
       100005a2c e1 02 41 ad     ldp        q1,q0,[x23, #local_c90[16]]
       100005a30 61 83 01 ad     stp        q1,q0,[x27, #local_890[0]]
       100005a34 e9 a3 57 a9     ldp        x9,x8,[sp, #local_c44[12]]
       100005a38 e8 a7 03 a9     stp        x8,x9,[sp, #local_d78]
       100005a3c b7 83 02 d1     sub        x23,x29,#0xa0
       100005a40 a8 83 02 d1     sub        x8,x29,#0xa0
       100005a44 e0 03 14 91     add        x0,sp,#0x500
       100005a48 01 04 80 52     mov        w1,#0x20
       100005a4c d8 40 00 94     bl         hex::encode                                      undefined encode()
       100005a50 e8 83 42 f9     ldr        x8,[sp, #local_8b0[0]]
       100005a54 e9 87 42 f9     ldr        x9,[sp, #local_8b0[8]]
       100005a58 ea 2f 4a a9     ldp        x10,x11,[sp, #local_d10[0]]
       100005a5c 08 01 0a ca     eor        x8,x8,x10
       100005a60 29 01 0b ca     eor        x9,x9,x11
       100005a64 ea 8b 42 f9     ldr        x10,[sp, #local_8a0]
       100005a68 eb 8f 42 f9     ldr        x11,[sp, #local_898]
       100005a6c ec 37 4b a9     ldp        x12,x13,[sp, #local_d10[16]]
       100005a70 4a 01 0c ca     eor        x10,x10,x12
       100005a74 6b 01 0d ca     eor        x11,x11,x13
       100005a78 08 01 09 aa     orr        x8,x8,x9
       100005a7c 49 01 0b aa     orr        x9,x10,x11
       100005a80 08 01 09 aa     orr        x8,x8,x9
       100005a84 f4 04 00 f0     adrp       x20,0x1000a4000
       100005a88 94 0e 36 91     add        x20,x20,#0xd83
       100005a8c fa 04 00 f0     adrp       x26,0x1000a4000
       100005a90 5a e7 35 91     add        x26,x26,#0xd79
       100005a94 1f 01 00 f1     cmp        x8,#0x0
       100005a98 48 13 94 9a     csel       x8,x26,x20,ne
       100005a9c e9 00 80 52     mov        w9,#0x7
       100005aa0 4a 01 80 52     mov        w10,#0xa
       100005aa4 49 11 89 9a     csel       x9,x10,x9,ne
       100005aa8 f9 ff ff b0     adrp       x25,0x100002000
       100005aac 39 83 2c 91     add        x25,x25,#0xb20
       100005ab0 a8 a7 31 a9     stp        x8,x9,[x29, #local_f8[0]]
       100005ab4 f7 63 04 f9     str        x23,[sp, #local_4f0[0]]
       100005ab8 f9 67 04 f9     str        x25=>_<>::fmt,[sp, #local_4f0[8]]
       100005abc a8 a3 03 d1     sub        x8,x29,#0xe8
       100005ac0 77 00 00 b0     adrp       x23,0x100012000
       100005ac4 f7 12 35 91     add        x23,x23,#0xd44
       100005ac8 e8 6b 04 f9     str        x8,[sp, #local_4e0]
       100005acc f7 6f 04 f9     str        x23=>_<>::fmt,[sp, #local_4d8]
       100005ad0 28 06 00 f0     adrp       x8,0x1000cc000
       100005ad4 08 c1 0d 91     add        x8,x8,#0x370
       100005ad8 69 00 80 52     mov        w9,#0x3
       100005adc e8 27 11 a9     stp        x8=>PTR_DAT_1000cc370,x9,[sp, #local_ca0[0]]     = 1000a4d8a
       100005ae0 e8 03 23 91     add        x8,sp,#0x8c0
       100005ae4 49 00 80 52     mov        w9,#0x2
       100005ae8 e8 93 00 f9     str        x8,[sp, #local_c90[0]]
       100005aec e9 ff 12 a9     stp        x9,xzr,[sp, #local_c90[8]]
       100005af0 e0 43 04 91     add        x0,sp,#0x110
       100005af4 98 e9 01 94     bl         std::io::stdio::_print                           undefined _print()
       100005af8 a1 03 56 f8     ldur       x1,[x29, #local_b0[0]]
       100005afc 81 00 00 b4     cbz        x1,LAB_100005b0c
       100005b00 a0 83 56 f8     ldur       x0,[x29, #local_b0[8]]
       100005b04 22 00 80 52     mov        w2,#0x1
       100005b08 67 43 00 94     bl         ___rust_dealloc                                  undefined ___rust_dealloc()
                             LAB_100005b0c                                   XREF[1]:     100005afc(j)  
       100005b0c e9 03 14 91     add        x9,sp,#0x500
       100005b10 b8 83 02 d1     sub        x24,x29,#0xa0
       100005b14 a8 83 02 d1     sub        x8,x29,#0xa0
       100005b18 20 81 00 91     add        x0,x9,#0x20
       100005b1c 01 04 80 52     mov        w1,#0x20
       100005b20 a3 40 00 94     bl         hex::encode                                      undefined encode()
       100005b24 e8 93 42 f9     ldr        x8,[sp, #local_890[0]]
       100005b28 e9 97 42 f9     ldr        x9,[sp, #local_890[8]]
       100005b2c ea 2f 4c a9     ldp        x10,x11,[sp, #local_cf0[0]]
       100005b30 08 01 0a ca     eor        x8,x8,x10
       100005b34 29 01 0b ca     eor        x9,x9,x11
       100005b38 ea 9b 42 f9     ldr        x10,[sp, #local_880]
       100005b3c eb 9f 42 f9     ldr        x11,[sp, #local_878]
       100005b40 ec 37 4d a9     ldp        x12,x13,[sp, #local_ce0]
       100005b44 4a 01 0c ca     eor        x10,x10,x12
       100005b48 6b 01 0d ca     eor        x11,x11,x13
       100005b4c 08 01 09 aa     orr        x8,x8,x9
       100005b50 49 01 0b aa     orr        x9,x10,x11
       100005b54 08 01 09 aa     orr        x8,x8,x9
       100005b58 1f 01 00 f1     cmp        x8,#0x0
       100005b5c 48 13 94 9a     csel       x8,x26,x20,ne
       100005b60 e9 00 80 52     mov        w9,#0x7
       100005b64 4a 01 80 52     mov        w10,#0xa
       100005b68 49 11 89 9a     csel       x9,x10,x9,ne
       100005b6c a8 a7 31 a9     stp        x8,x9,[x29, #local_f8[0]]
       100005b70 f8 63 04 f9     str        x24,[sp, #local_4f0[0]]
       100005b74 f9 67 04 f9     str        x25=>_<>::fmt,[sp, #local_4f0[8]]
       100005b78 a8 a3 03 d1     sub        x8,x29,#0xe8
       100005b7c e8 6b 04 f9     str        x8,[sp, #local_4e0]
       100005b80 f7 6f 04 f9     str        x23=>_<>::fmt,[sp, #local_4d8]
       100005b84 28 06 00 f0     adrp       x8,0x1000cc000
       100005b88 08 81 0e 91     add        x8,x8,#0x3a0
       100005b8c 69 00 80 52     mov        w9,#0x3
       100005b90 e8 27 11 a9     stp        x8=>PTR_DAT_1000cc3a0,x9,[sp, #local_ca0[0]]     = 1000a4d9c
       100005b94 e8 03 23 91     add        x8,sp,#0x8c0
       100005b98 49 00 80 52     mov        w9,#0x2
       100005b9c e8 93 00 f9     str        x8,[sp, #local_c90[0]]
       100005ba0 e9 ff 12 a9     stp        x9,xzr,[sp, #local_c90[8]]
       100005ba4 e0 43 04 91     add        x0,sp,#0x110
       100005ba8 6b e9 01 94     bl         std::io::stdio::_print                           undefined _print()
       100005bac a1 03 56 f8     ldur       x1,[x29, #local_b0[0]]
       100005bb0 81 00 00 b4     cbz        x1,LAB_100005bc0
       100005bb4 a0 83 56 f8     ldur       x0,[x29, #local_b0[8]]
       100005bb8 22 00 80 52     mov        w2,#0x1
       100005bbc 3a 43 00 94     bl         ___rust_dealloc                                  undefined ___rust_dealloc()
                             LAB_100005bc0                                   XREF[1]:     100005bb0(j)  
       100005bc0 f6 03 14 91     add        x22,sp,#0x500
       100005bc4 e8 63 45 b9     ldr        w8,[sp, #local_850]
       100005bc8 e9 53 40 b9     ldr        w9,[sp, #local_d60]
       100005bcc 1f 01 09 6b     cmp        w8,w9
       100005bd0 88 02 9a 9a     csel       x8,x20,x26,eq
       100005bd4 49 01 80 52     mov        w9,#0xa
       100005bd8 ea 00 80 52     mov        w10,#0x7
       100005bdc 49 01 89 9a     csel       x9,x10,x9,eq
       100005be0 a8 27 36 a9     stp        x8=>DAT_1000a4d79,x9,[x29, #local_b0[0]]         = 28h    (
       100005be4 a8 04 00 b0     adrp       x8,0x10009a000
       100005be8 08 51 2a 91     add        x8,x8,#0xa94
       100005bec c9 82 01 91     add        x9,x22,#0x60
       100005bf0 e9 63 04 f9     str        x9,[sp, #local_4f0[0]]
       100005bf4 e8 67 04 f9     str        x8=>core::fmt::num::imp::_<>::fmt,[sp, #local_
       100005bf8 a8 83 02 d1     sub        x8,x29,#0xa0
       100005bfc e8 6b 04 f9     str        x8,[sp, #local_4e0]
       100005c00 f7 6f 04 f9     str        x23=>_<>::fmt,[sp, #local_4d8]
       100005c04 28 06 00 f0     adrp       x8,0x1000cc000
       100005c08 08 41 0f 91     add        x8,x8,#0x3d0
       100005c0c 69 00 80 52     mov        w9,#0x3
       100005c10 e8 27 11 a9     stp        x8=>PTR_s_your_len_tokens=_1000cc3d0,x9,[sp, #   = 1000a4af0
       100005c14 e8 03 23 91     add        x8,sp,#0x8c0
       100005c18 49 00 80 52     mov        w9,#0x2
       100005c1c e8 93 00 f9     str        x8,[sp, #local_c90[0]]
       100005c20 e9 ff 12 a9     stp        x9,xzr,[sp, #local_c90[8]]
       100005c24 e0 43 04 91     add        x0,sp,#0x110
       100005c28 4b e9 01 94     bl         std::io::stdio::_print                           undefined _print()
       100005c2c a8 83 02 d1     sub        x8,x29,#0xa0
       100005c30 c0 02 01 91     add        x0,x22,#0x40
       100005c34 01 04 80 52     mov        w1,#0x20
       100005c38 5d 40 00 94     bl         hex::encode                                      undefined encode()
       100005c3c e8 a3 42 f9     ldr        x8,[sp, #local_870[0]]
       100005c40 e9 a7 42 f9     ldr        x9,[sp, #local_870[8]]
       100005c44 ea 2f 4e a9     ldp        x10,x11,[sp, #local_cd0[0]]
       100005c48 08 01 0a ca     eor        x8,x8,x10
       100005c4c 29 01 0b ca     eor        x9,x9,x11
       100005c50 ea ab 42 f9     ldr        x10,[sp, #local_860]
       100005c54 eb af 42 f9     ldr        x11,[sp, #local_858]
       100005c58 ec 37 4f a9     ldp        x12,x13,[sp, #local_cc0]
       100005c5c 4a 01 0c ca     eor        x10,x10,x12
       100005c60 6b 01 0d ca     eor        x11,x11,x13
       100005c64 08 01 09 aa     orr        x8,x8,x9
       100005c68 49 01 0b aa     orr        x9,x10,x11
       100005c6c 08 01 09 aa     orr        x8,x8,x9
       100005c70 1f 01 00 f1     cmp        x8,#0x0
       100005c74 48 13 94 9a     csel       x8,x26,x20,ne
       100005c78 e9 00 80 52     mov        w9,#0x7
       100005c7c 4a 01 80 52     mov        w10,#0xa
       100005c80 49 11 89 9a     csel       x9,x10,x9,ne
       100005c84 a8 a7 31 a9     stp        x8,x9,[x29, #local_f8[0]]
       100005c88 f8 63 04 f9     str        x24,[sp, #local_4f0[0]]
       100005c8c f9 67 04 f9     str        x25=>_<>::fmt,[sp, #local_4f0[8]]
       100005c90 a8 a3 03 d1     sub        x8,x29,#0xe8
       100005c94 e8 6b 04 f9     str        x8,[sp, #local_4e0]
       100005c98 f7 6f 04 f9     str        x23=>_<>::fmt,[sp, #local_4d8]
       100005c9c 28 06 00 f0     adrp       x8,0x1000cc000
       100005ca0 08 01 10 91     add        x8,x8,#0x400
       100005ca4 69 00 80 52     mov        w9,#0x3
       100005ca8 e8 27 11 a9     stp        x8=>PTR_DAT_1000cc400,x9,[sp, #local_ca0[0]]     = 1000a4db5
       100005cac e8 03 23 91     add        x8,sp,#0x8c0
       100005cb0 49 00 80 52     mov        w9,#0x2
       100005cb4 e8 93 00 f9     str        x8,[sp, #local_c90[0]]
       100005cb8 e9 ff 12 a9     stp        x9,xzr,[sp, #local_c90[8]]
       100005cbc e0 43 04 91     add        x0,sp,#0x110
       100005cc0 25 e9 01 94     bl         std::io::stdio::_print                           undefined _print()
       100005cc4 a1 03 56 f8     ldur       x1=>DAT_1000a4d79,[x29, #local_b0[0]]            = 28h    (
       100005cc8 f7 03 14 91     add        x23,sp,#0x500
       100005ccc 81 00 00 b4     cbz        x1,LAB_100005cdc
       100005cd0 a0 83 56 f8     ldur       x0,[x29, #local_b0[8]]
       100005cd4 22 00 80 52     mov        w2,#0x1
       100005cd8 f3 42 00 94     bl         ___rust_dealloc                                  undefined ___rust_dealloc()
                             LAB_100005cdc                                   XREF[1]:     100005ccc(j)  
       100005cdc e8 83 42 f9     ldr        x8,[sp, #local_8b0[0]]
       100005ce0 e9 53 40 f9     ldr        x9,[sp, #local_d10[0]]
       100005ce4 08 0d c0 da     rev        x8,x8
       100005ce8 29 0d c0 da     rev        x9,x9
       100005cec 1f 01 09 eb     cmp        x8,x9
       100005cf0 a1 02 00 54     b.ne       LAB_100005d44
       100005cf4 e8 87 42 f9     ldr        x8,[sp, #local_8b0[8]]
       100005cf8 e9 57 40 f9     ldr        x9,[sp, #local_d10[8]]
       100005cfc 08 0d c0 da     rev        x8,x8
       100005d00 29 0d c0 da     rev        x9,x9
       100005d04 1f 01 09 eb     cmp        x8,x9
       100005d08 e1 01 00 54     b.ne       LAB_100005d44
       100005d0c e8 8b 42 f9     ldr        x8,[sp, #local_8a0]
       100005d10 e9 5b 40 f9     ldr        x9,[sp, #local_d10[16]]
       100005d14 08 0d c0 da     rev        x8,x8
       100005d18 29 0d c0 da     rev        x9,x9
       100005d1c 1f 01 09 eb     cmp        x8,x9
       100005d20 21 01 00 54     b.ne       LAB_100005d44
       100005d24 e8 8f 42 f9     ldr        x8,[sp, #local_898]
       100005d28 e9 5f 40 f9     ldr        x9,[sp, #local_cf8]
       100005d2c 08 0d c0 da     rev        x8,x8
       100005d30 29 0d c0 da     rev        x9,x9
       100005d34 1f 01 09 eb     cmp        x8,x9
       100005d38 61 00 00 54     b.ne       LAB_100005d44
       100005d3c 08 00 80 52     mov        w8,#0x0
       100005d40 04 00 00 14     b          LAB_100005d50
                             LAB_100005d44                                   XREF[4]:     100005cf0(j), 100005d08(j), 
                                                                                          100005d20(j), 100005d38(j)  
       100005d44 1f 01 09 eb     cmp        x8,x9
       100005d48 08 00 80 12     mov        w8,#0xffffffff
       100005d4c 08 35 88 5a     cneg       w8,w8,cs
                             LAB_100005d50                                   XREF[1]:     100005d40(j)  
       100005d50 e9 93 42 f9     ldr        x9,[sp, #local_890[0]]
       100005d54 ea 63 40 f9     ldr        x10,[sp, #local_cf0[0]]
       100005d58 29 0d c0 da     rev        x9,x9
       100005d5c 4a 0d c0 da     rev        x10,x10
       100005d60 3f 01 0a eb     cmp        x9,x10
       100005d64 a1 02 00 54     b.ne       LAB_100005db8
       100005d68 e9 97 42 f9     ldr        x9,[sp, #local_890[8]]
       100005d6c ea 67 40 f9     ldr        x10,[sp, #local_cf0[8]]
       100005d70 29 0d c0 da     rev        x9,x9
       100005d74 4a 0d c0 da     rev        x10,x10
       100005d78 3f 01 0a eb     cmp        x9,x10
       100005d7c e1 01 00 54     b.ne       LAB_100005db8
       100005d80 e9 9b 42 f9     ldr        x9,[sp, #local_880]
       100005d84 ea 6b 40 f9     ldr        x10,[sp, #local_ce0]
       100005d88 29 0d c0 da     rev        x9,x9
       100005d8c 4a 0d c0 da     rev        x10,x10
       100005d90 3f 01 0a eb     cmp        x9,x10
       100005d94 21 01 00 54     b.ne       LAB_100005db8
       100005d98 e9 9f 42 f9     ldr        x9,[sp, #local_878]
       100005d9c ea 6f 40 f9     ldr        x10,[sp, #local_cd8]
       100005da0 29 0d c0 da     rev        x9,x9
       100005da4 4a 0d c0 da     rev        x10,x10
       100005da8 3f 01 0a eb     cmp        x9,x10
       100005dac 61 00 00 54     b.ne       LAB_100005db8
       100005db0 09 00 80 52     mov        w9,#0x0
       100005db4 04 00 00 14     b          LAB_100005dc4
                             LAB_100005db8                                   XREF[4]:     100005d64(j), 100005d7c(j), 
                                                                                          100005d94(j), 100005dac(j)  
       100005db8 3f 01 0a eb     cmp        x9,x10
       100005dbc 09 00 80 12     mov        w9,#0xffffffff
       100005dc0 29 35 89 5a     cneg       w9,w9,cs
                             LAB_100005dc4                                   XREF[1]:     100005db4(j)  
       100005dc4 ea 63 45 b9     ldr        w10,[sp, #local_850]
       100005dc8 eb a3 42 f9     ldr        x11,[sp, #local_870[0]]
       100005dcc ec 73 40 f9     ldr        x12,[sp, #local_cd0[0]]
       100005dd0 6b 0d c0 da     rev        x11,x11
       100005dd4 8c 0d c0 da     rev        x12,x12
       100005dd8 7f 01 0c eb     cmp        x11,x12
       100005ddc a1 02 00 54     b.ne       LAB_100005e30
       100005de0 eb a7 42 f9     ldr        x11,[sp, #local_870[8]]
       100005de4 ec 77 40 f9     ldr        x12,[sp, #local_cd0[8]]
       100005de8 6b 0d c0 da     rev        x11,x11
       100005dec 8c 0d c0 da     rev        x12,x12
       100005df0 7f 01 0c eb     cmp        x11,x12
       100005df4 e1 01 00 54     b.ne       LAB_100005e30
       100005df8 eb ab 42 f9     ldr        x11,[sp, #local_860]
       100005dfc ec 7b 40 f9     ldr        x12,[sp, #local_cc0]
       100005e00 6b 0d c0 da     rev        x11,x11
       100005e04 8c 0d c0 da     rev        x12,x12
       100005e08 7f 01 0c eb     cmp        x11,x12
       100005e0c 21 01 00 54     b.ne       LAB_100005e30
       100005e10 eb af 42 f9     ldr        x11,[sp, #local_858]
       100005e14 ec 7f 40 f9     ldr        x12,[sp, #local_cb8]
       100005e18 6b 0d c0 da     rev        x11,x11
       100005e1c 8c 0d c0 da     rev        x12,x12
       100005e20 7f 01 0c eb     cmp        x11,x12
       100005e24 61 00 00 54     b.ne       LAB_100005e30
       100005e28 0b 00 80 52     mov        w11,#0x0
       100005e2c 04 00 00 14     b          LAB_100005e3c
                             LAB_100005e30                                   XREF[4]:     100005ddc(j), 100005df4(j), 
                                                                                          100005e0c(j), 100005e24(j)  
       100005e30 7f 01 0c eb     cmp        x11,x12
       100005e34 0b 00 80 12     mov        w11,#0xffffffff
       100005e38 6b 35 8b 5a     cneg       w11,w11,cs
                             LAB_100005e3c                                   XREF[1]:     100005e2c(j)  
       100005e3c ec 53 40 b9     ldr        w12,[sp, #local_d60]
       100005e40 5f 01 0c 6b     cmp        w10,w12
       100005e44 a1 15 00 54     b.ne       LAB_1000060f8
       100005e48 28 01 08 2a     orr        w8,w9,w8
       100005e4c 08 01 0b 2a     orr        w8,w8,w11
       100005e50 48 15 00 35     cbnz       w8,LAB_1000060f8
       100005e54 68 06 00 f0     adrp       x8,0x1000d4000
       100005e58 08 e5 14 91     add        x8,x8,#0x539
       100005e5c 1f 01 40 39     ldrb       wzr,[x8]=>___rust_no_alloc_shim_is_unstable
       100005e60 00 0c 80 52     mov        w0,#0x60
       100005e64 21 00 80 52     mov        w1,#0x1
       100005e68 8e 42 00 94     bl         ___rust_alloc                                    undefined ___rust_alloc()
       100005e6c e0 6c 00 b4     cbz        x0,LAB_100006c08
       100005e70 f4 03 00 aa     mov        x20,x0
       100005e74 60 87 40 ad     ldp        q0,q1,[x27, #local_8b0[0]]
       100005e78 00 04 00 ad     stp        q0,q1,[x0]
       100005e7c e8 03 14 91     add        x8,sp,#0x500
       100005e80 00 05 41 ad     ldp        q0,q1,[x8, #local_890[0]]
       100005e84 00 04 01 ad     stp        q0,q1,[x0, #0x20]
       100005e88 e0 06 42 ad     ldp        q0,q1,[x23, #local_870[0]]
       100005e8c 00 04 02 ad     stp        q0,q1,[x0, #0x40]
       100005e90 a0 a3 03 d1     sub        x0,x29,#0xe8
       100005e94 e1 03 14 aa     mov        x1,x20
       100005e98 02 0c 80 52     mov        w2,#0x60
       100005e9c 25 f3 ff 97     bl         toknorm::sha256                                  undefined sha256()
       100005ea0 e0 03 14 aa     mov        x0,x20
       100005ea4 01 0c 80 52     mov        w1,#0x60
       100005ea8 22 00 80 52     mov        w2,#0x1
       100005eac 7e 42 00 94     bl         ___rust_dealloc                                  undefined ___rust_dealloc()
       100005eb0 e8 43 04 91     add        x8,sp,#0x110
       100005eb4 a0 a3 03 d1     sub        x0,x29,#0xe8
       100005eb8 df 69 01 94     bl         aes::soft::fixslice::aes256_key_schedule         undefined aes256_key_schedule()
       100005ebc e0 03 23 91     add        x0,sp,#0x8c0
       100005ec0 e1 43 04 91     add        x1,sp,#0x110
       100005ec4 02 78 80 52     mov        w2,#0x3c0
       100005ec8 bd 63 02 94     bl         _memcpy                                          void * _memcpy(void * param_1, v
       100005ecc 00 e4 00 6f     movi       v0.2D,#0x0
       100005ed0 a8 03 04 d1     sub        x8,x29,#0x100
       100005ed4 00 01 04 ad     stp        q0,q0,[x8, #local_90[0]]
       100005ed8 00 01 03 ad     stp        q0,q0,[x8, #local_b0[0]]
       100005edc f4 43 04 91     add        x20,sp,#0x110
       100005ee0 e8 43 04 91     add        x8,sp,#0x110
       100005ee4 e0 03 23 91     add        x0,sp,#0x8c0
       100005ee8 a1 83 02 d1     sub        x1,x29,#0xa0
       100005eec 8c 6b 01 94     bl         aes::soft::fixslice::aes256_encrypt              undefined aes256_encrypt()
       100005ef0 e8 43 44 39     ldrb       w8,[sp, #local_ca0[0]]
       100005ef4 e9 47 44 39     ldrb       w9,[sp, #local_ca0[1]]
       100005ef8 ea 4b 44 39     ldrb       w10,[sp, #local_ca0[2]]
       100005efc eb 4f 44 39     ldrb       w11,[sp, #local_ca0[3]]
       100005f00 ec 53 44 39     ldrb       w12,[sp, #local_ca0[4]]
       100005f04 ed 57 44 39     ldrb       w13,[sp, #local_ca0[5]]
       100005f08 ee 5b 44 39     ldrb       w14,[sp, #local_ca0[6]]
       100005f0c ef 5f 44 39     ldrb       w15,[sp, #local_ca0[7]]
       100005f10 f0 63 44 39     ldrb       w16,[sp, #local_ca0[8]]
       100005f14 f1 67 44 39     ldrb       w17,[sp, #local_ca0[9]]
       100005f18 00 1d 48 d3     lsl        x0,x8,#0x38
       100005f1c 4a 5d 58 d3     lsl        x10,x10,#0x28
       100005f20 10 1e 48 d3     lsl        x16,x16,#0x38
       100005f24 e1 6b 44 39     ldrb       w1,[sp, #local_ca0[10]]
       100005f28 e2 6f 44 39     ldrb       w2,[sp, #local_ca0[11]]
       100005f2c e3 73 44 39     ldrb       w3,[sp, #local_ca0[12]]
       100005f30 e4 77 44 39     ldrb       w4,[sp, #local_ca0[13]]
       100005f34 e5 7b 44 39     ldrb       w5,[sp, #local_ca0[14]]
       100005f38 e6 7f 44 39     ldrb       w6,[sp, #local_ca0[15]]
       100005f3c 49 c1 09 aa     orr        x9,x10,x9, LSL #0x30
       100005f40 29 81 0b aa     orr        x9,x9,x11, LSL #0x20
       100005f44 29 61 0c aa     orr        x9,x9,x12, LSL #0x18
       100005f48 29 41 0d aa     orr        x9,x9,x13, LSL #0x10
       100005f4c 29 21 0e aa     orr        x9,x9,x14, LSL #0x8
       100005f50 0a c2 11 aa     orr        x10,x16,x17, LSL #0x30
       100005f54 4a a1 01 aa     orr        x10,x10,x1, LSL #0x28
       100005f58 4a 81 02 aa     orr        x10,x10,x2, LSL #0x20
       100005f5c 4a 61 03 aa     orr        x10,x10,x3, LSL #0x18
       100005f60 4a 41 04 aa     orr        x10,x10,x4, LSL #0x10
       100005f64 4a 01 06 aa     orr        x10,x10,x6
       100005f68 eb 01 00 aa     orr        x11,x15,x0
       100005f6c 29 01 0b aa     orr        x9,x9,x11
       100005f70 08 fd 47 d3     lsr        x8,x8,#0x7
       100005f74 ab d8 77 d3     lsl        x11,x5,#0x9
       100005f78 6a 05 0a aa     orr        x10,x11,x10, LSL #0x1
       100005f7c 29 fd d0 93     extr       x9,x9,x16,#0x3f
       100005f80 0b 00 41 92     and        x11,x0,#-0x8000000000000000
       100005f84 6b f9 08 aa     orr        x11,x11,x8, LSL #0x3e
       100005f88 6b e5 08 aa     orr        x11,x11,x8, LSL #0x39
       100005f8c 29 01 0b ca     eor        x9,x9,x11
       100005f90 48 01 08 aa     orr        x8,x10,x8
       100005f94 a8 27 36 a9     stp        x8,x9,[x29, #local_b0[0]]
       100005f98 88 02 0f 91     add        x8,x20,#0x3c0
       100005f9c a0 83 02 d1     sub        x0,x29,#0xa0
       100005fa0 01 00 80 d2     mov        x1,#0x0
       100005fa4 02 00 80 d2     mov        x2,#0x0
       100005fa8 64 68 01 94     bl         polyval::backend::soft::Polyval::new_with_init   undefined new_with_init_block()
       100005fac e0 43 04 91     add        x0,sp,#0x110
       100005fb0 e1 03 23 91     add        x1,sp,#0x8c0
       100005fb4 02 78 80 52     mov        w2,#0x3c0
       100005fb8 81 63 02 94     bl         _memcpy                                          void * _memcpy(void * param_1, v
       100005fbc a8 03 04 d1     sub        x8,x29,#0x100
       100005fc0 e0 43 04 91     add        x0,sp,#0x110
       100005fc4 e1 43 02 91     add        x1,sp,#0x90
       100005fc8 e2 27 40 f9     ldr        x2,[sp, #local_d68]
       100005fcc e3 1b 40 f9     ldr        x3,[sp, #local_d80]
       100005fd0 3b 20 00 94     bl         _<>::decrypt                                     undefined decrypt()
       100005fd4 b8 03 50 f8     ldur       x24,[x29, #local_110]
       100005fd8 08 00 f0 d2     mov        x8,#-0x8000000000000000
       100005fdc 1f 03 08 eb     cmp        x24,x8
       100005fe0 61 11 00 54     b.ne       LAB_10000620c
       100005fe4 28 06 00 f0     adrp       x8,0x1000cc000
       100005fe8 08 81 11 91     add        x8,x8,#0x460
       100005fec 29 00 80 52     mov        w9,#0x1
       100005ff0 e8 63 04 f9     str        x8=>PTR_DAT_1000cc460,[sp, #local_4f0[0]]        = 1000a4df3
       100005ff4 e9 67 04 f9     str        x9,[sp, #local_4f0[8]]
       100005ff8 08 01 80 52     mov        w8,#0x8
       100005ffc ff 73 04 f9     str        xzr,[sp, #local_4d0[0]]
       100006000 e8 6b 04 f9     str        x8,[sp, #local_4e0]
       100006004 ff 6f 04 f9     str        xzr,[sp, #local_4d8]
       100006008 e0 03 23 91     add        x0,sp,#0x8c0
       10000600c 52 e8 01 94     bl         std::io::stdio::_print                           undefined _print()
       100006010 a1 00 00 14     b          LAB_100006294
                             LAB_100006014                                   XREF[1]:     1000056b8(j)  
       100006014 f4 83 41 a9     ldp        x20,x0,[sp, #local_d98]
       100006018 e1 07 40 f9     ldr        x1,[sp, #local_da8]
       10000601c 6d 40 00 94     bl         core::str::_<impl_str>::trim_matches             undefined trim_matches()
       100006020 21 0b 00 37     tbnz       w1,#0x0,LAB_100006184
       100006024 68 00 80 52     mov        w8,#0x3
       100006028 e8 a3 00 b9     str        w8,[sp, #local_d10[0]]
       10000602c e0 07 11 a9     stp        x0,x1,[sp, #local_ca0[0]]
       100006030 e8 04 00 d0     adrp       x8,0x1000a4000
       100006034 00 99 c2 3d     ldr        q0,[x8, #0xa60]=>DAT_1000a4a60                   = 02h
       100006038 e0 06 80 3d     str        q0,[x23, #local_c90[0]]
       10000603c e8 83 02 91     add        x8,sp,#0xa0
       100006040 e8 9b 00 f9     str        x8,[sp, #local_c90[16]]
       100006044 21 06 00 f0     adrp       x1,0x1000cd000
       100006048 21 40 23 91     add        x1=>_anon.6853dccacecbe2e060835573c6593093.1,x   = 1000a5cd0
       10000604c e8 03 23 91     add        x8,sp,#0x8c0
       100006050 e0 43 04 91     add        x0,sp,#0x110
       100006054 8a 19 00 94     bl         _<>::from_iter                                   undefined from_iter()
       100006058 e8 a3 40 b9     ldr        w8,[sp, #local_d10[0]]
       10000605c 1f 0d 00 71     cmp        w8,#0x3
       100006060 41 1b 00 54     b.ne       LAB_1000063c8
       100006064 f9 0b 00 f9     str        x25,[sp, #local_da0]
       100006068 e1 63 44 f9     ldr        x1,[sp, #local_4f0[0]]
       10000606c f9 67 44 f9     ldr        x25,[sp, #local_4f0[8]]
       100006070 f4 6b 44 f9     ldr        x20,[sp, #local_4e0]
       100006074 08 00 f0 d2     mov        x8,#-0x8000000000000000
       100006078 3f 00 08 eb     cmp        x1,x8
       10000607c 20 1b 00 54     b.eq       LAB_1000063e0
       100006080 9f 32 00 f1     cmp        x20,#0xc
       100006084 41 2c 00 54     b.ne       LAB_10000660c
       100006088 28 03 40 b9     ldr        w8,[x25]
       10000608c a8 03 16 b8     stur       w8,[x29, #local_b0[0]]
       100006090 28 33 40 b8     ldur       w8,[x25, #0x3]
       100006094 08 33 06 b8     stur       w8,[x24, #local_b0[3]]
       100006098 28 2f 40 39     ldrb       w8,[x25, #0xb]
       10000609c 29 73 40 b8     ldur       w9,[x25, #0x7]
       1000060a0 34 81 08 aa     orr        x20,x9,x8, LSL #0x20
       1000060a4 81 00 00 b4     cbz        x1,LAB_1000060b4
       1000060a8 e0 03 19 aa     mov        x0,x25
       1000060ac 22 00 80 52     mov        w2,#0x1
       1000060b0 fd 41 00 94     bl         ___rust_dealloc                                  undefined ___rust_dealloc()
                             LAB_1000060b4                                   XREF[1]:     1000060a4(j)  
       1000060b4 a8 03 56 b8     ldur       w8,[x29, #local_b0[0]]
       1000060b8 e8 f3 04 b9     str        w8,[sp, #local_8c0[0]]
       1000060bc 08 33 46 b8     ldur       w8,[x24, #local_b0[3]]
       1000060c0 68 33 00 b8     stur       w8,[x27, #local_8c0[3]]
       1000060c4 74 73 00 b8     stur       w20,[x27, #local_8c0[7]]
       1000060c8 88 fe 60 d3     lsr        x8,x20,#0x20
       1000060cc e8 ef 13 39     strb       w8,[sp, #Stack[-0x8b5]]
       1000060d0 e8 2f 40 f9     ldr        x8,[sp, #local_d58]
       1000060d4 f9 0b 40 f9     ldr        x25,[sp, #local_da0]
       1000060d8 a8 b1 ff b4     cbz        x8,LAB_10000570c
       1000060dc e0 13 40 f9     ldr        x0,[sp, #local_d90]
       1000060e0 e1 2f 40 f9     ldr        x1,[sp, #local_d58]
       1000060e4 22 00 80 52     mov        w2,#0x1
       1000060e8 ef 41 00 94     bl         ___rust_dealloc                                  undefined ___rust_dealloc()
       1000060ec 88 fd ff 17     b          LAB_10000570c
                             LAB_1000060f0                                   XREF[1]:     100005924(j)  
       1000060f0 39 00 80 52     mov        w25,#0x1
       1000060f4 2c 00 00 14     b          LAB_1000061a4
                             LAB_1000060f8                                   XREF[2]:     100005e44(j), 100005e50(j)  
       1000060f8 28 06 00 d0     adrp       x8,0x1000cc000
       1000060fc 08 c1 10 91     add        x8,x8,#0x430
       100006100 29 00 80 52     mov        w9,#0x1
       100006104 e8 27 11 a9     stp        x8=>PTR_DAT_1000cc430,x9,[sp, #local_ca0[0]]     = 1000a4dc6
       100006108 08 01 80 52     mov        w8,#0x8
       10000610c ff ff 12 a9     stp        xzr,xzr,[sp, #local_c90[8]]
       100006110 e8 93 00 f9     str        x8,[sp, #local_c90[0]]
       100006114 e0 43 04 91     add        x0,sp,#0x110
       100006118 0f e8 01 94     bl         std::io::stdio::_print                           undefined _print()
       10000611c 5e 00 00 14     b          LAB_100006294
                             LAB_100006120                                   XREF[1]:     1000058e0(j)  
       100006120 e8 87 42 f9     ldr        x8,[sp, #local_8b0[8]]
       100006124 e8 37 00 f9     str        x8,[sp, #local_d48]
       100006128 f4 8b 42 f9     ldr        x20,[sp, #local_8a0]
       10000612c ff 03 05 b9     str        wzr,[sp, #local_8b0[0]]
       100006130 c8 36 80 52     mov        w8,#0x1b6
       100006134 e8 0b 0a 79     strh       w8,[sp, #local_8b0[4]]
       100006138 7f 63 01 b8     stur       wzr,[x27, #local_8b0[6]]
       10000613c ff 17 0a 79     strh       wzr,[sp, #local_8b0[10]]
       100006140 28 00 80 52     mov        w8,#0x1
       100006144 e8 1f 14 39     strb       w8,[sp, #local_8b0[7]]
       100006148 e8 2b 14 39     strb       w8,[sp, #local_8b0[10]]
       10000614c e8 27 14 39     strb       w8,[sp, #local_8b0[9]]
       100006150 e8 03 23 91     add        x8,sp,#0x8c0
       100006154 e0 03 14 91     add        x0,sp,#0x500
       100006158 e1 03 1c aa     mov        x1,x28
       10000615c 7c df 01 94     bl         std::fs::OpenOptions::_open                      undefined _open()
       100006160 e8 03 14 91     add        x8,sp,#0x500
       100006164 e0 03 23 91     add        x0,sp,#0x8c0
       100006168 e1 03 32 91     add        x1,sp,#0xc80
       10000616c 85 33 00 94     bl         anyhow::context::_<>::with_context               undefined with_context()
       100006170 e8 03 45 b9     ldr        w8,[sp, #local_8b0[0]]
       100006174 88 0c 00 36     tbz        w8,#0x0,LAB_100006304
       100006178 fb 87 42 f9     ldr        x27,[sp, #local_8b0[8]]
       10000617c f4 0f 40 f9     ldr        x20,[sp, #local_d98]
       100006180 88 00 00 14     b          LAB_1000063a0
                             LAB_100006184                                   XREF[1]:     100006020(j)  
       100006184 39 00 80 52     mov        w25,#0x1
       100006188 96 00 00 14     b          LAB_1000063e0
                             LAB_10000618c                                   XREF[1]:     100005964(j)  
       10000618c b9 f3 71 a9     ldp        x25,x28,[x29, #local_f8[0]]
       100006190 e1 63 44 f9     ldr        x1,[sp, #local_4f0[0]]
       100006194 81 00 00 b4     cbz        x1,LAB_1000061a4
       100006198 e0 67 44 f9     ldr        x0,[sp, #local_4f0[8]]
       10000619c 22 00 80 52     mov        w2,#0x1
       1000061a0 c1 41 00 94     bl         ___rust_dealloc                                  undefined ___rust_dealloc()
                             LAB_1000061a4                                   XREF[3]:     100005988(j), 1000060f4(j), 
                                                                                          100006194(j)  
       1000061a4 f9 6b 04 f9     str        x25,[sp, #local_4e0]
       1000061a8 fc 6f 04 f9     str        x28,[sp, #local_4d8]
       1000061ac e8 43 04 91     add        x8,sp,#0x110
       1000061b0 fc 2b 40 f9     ldr        x28,[sp, #local_d60]
       1000061b4 5f da 01 94     bl         std::backtrace::Backtrace::capture               undefined capture()
       1000061b8 e8 04 00 d0     adrp       x8,0x1000a4000
       1000061bc 08 21 34 91     add        x8,x8,#0xd08
       1000061c0 49 01 80 52     mov        w9,#0xa
       1000061c4 e8 63 04 f9     str        x8=>DAT_1000a4d08,[sp, #local_4f0[0]]            = 68h    h
       1000061c8 e9 67 04 f9     str        x9,[sp, #local_4f0[8]]
       1000061cc e0 03 23 91     add        x0,sp,#0x8c0
       1000061d0 e1 43 04 91     add        x1,sp,#0x110
       1000061d4 f4 5a 02 94     bl         anyhow::error::_<>::construct                    undefined construct()
       1000061d8 fb 03 00 aa     mov        x27,x0
       1000061dc e1 33 40 f9     ldr        x1,[sp, #local_d50]
       1000061e0 c1 20 00 b4     cbz        x1,LAB_1000065f8
                             LAB_1000061e4                                   XREF[1]:     1000065f4(j)  
       1000061e4 f7 03 14 aa     mov        x23,x20
       1000061e8 34 00 80 52     mov        w20,#0x1
       1000061ec e0 1f 40 f9     ldr        x0,[sp, #local_d78]
       1000061f0 22 00 80 52     mov        w2,#0x1
       1000061f4 ac 41 00 94     bl         ___rust_dealloc                                  undefined ___rust_dealloc()
       1000061f8 f4 23 00 f9     str        x20,[sp, #local_d70]
       1000061fc f4 03 17 aa     mov        x20,x23
       100006200 e1 1b 40 f9     ldr        x1,[sp, #local_d80]
       100006204 81 11 00 b5     cbnz       x1,LAB_100006434
       100006208 8e 00 00 14     b          LAB_100006440
                             LAB_10000620c                                   XREF[1]:     100005fe0(j)  
       10000620c bb 87 70 a9     ldp        x27,x1,[x29, #local_108]
       100006210 b4 83 02 d1     sub        x20,x29,#0xa0
       100006214 a8 83 02 d1     sub        x8,x29,#0xa0
       100006218 e0 03 1b aa     mov        x0,x27
       10000621c dd 3d 02 94     bl         alloc::string::String::from_utf8_lossy           undefined from_utf8_lossy()
       100006220 88 00 00 90     adrp       x8,0x100016000
       100006224 08 d1 11 91     add        x8,x8,#0x474
       100006228 f4 7b 02 f9     str        x20,[sp, #local_8c0[0]]
       10000622c e8 7f 02 f9     str        x8=>_<>::fmt,[sp, #local_8c0[8]]
       100006230 28 06 00 d0     adrp       x8,0x1000cc000
       100006234 08 01 11 91     add        x8,x8,#0x440
       100006238 49 00 80 52     mov        w9,#0x2
       10000623c e8 63 04 f9     str        x8=>PTR_DAT_1000cc440,[sp, #local_4f0[0]]        = 1000a4ded
       100006240 e9 67 04 f9     str        x9,[sp, #local_4f0[8]]
       100006244 ff 73 04 f9     str        xzr,[sp, #local_4d0[0]]
       100006248 e8 c3 13 91     add        x8,sp,#0x4f0
       10000624c 29 00 80 52     mov        w9,#0x1
       100006250 e8 6b 04 f9     str        x8,[sp, #local_4e0]
       100006254 e9 6f 04 f9     str        x9,[sp, #local_4d8]
       100006258 e0 03 23 91     add        x0,sp,#0x8c0
       10000625c be e7 01 94     bl         std::io::stdio::_print                           undefined _print()
       100006260 a1 03 56 f8     ldur       x1,[x29, #local_b0[0]]
       100006264 28 00 41 b2     orr        x8,x1,#-0x8000000000000000
       100006268 09 00 f0 d2     mov        x9,#-0x8000000000000000
       10000626c 1f 01 09 eb     cmp        x8,x9
       100006270 80 00 00 54     b.eq       LAB_100006280
       100006274 a0 83 56 f8     ldur       x0,[x29, #local_b0[8]]
       100006278 22 00 80 52     mov        w2,#0x1
       10000627c 8a 41 00 94     bl         ___rust_dealloc                                  undefined ___rust_dealloc()
                             LAB_100006280                                   XREF[1]:     100006270(j)  
       100006280 b8 00 00 b4     cbz        x24,LAB_100006294
       100006284 e0 03 1b aa     mov        x0,x27
       100006288 e1 03 18 aa     mov        x1,x24
       10000628c 22 00 80 52     mov        w2,#0x1
       100006290 85 41 00 94     bl         ___rust_dealloc                                  undefined ___rust_dealloc()
                             LAB_100006294                                   XREF[3]:     100006010(j), 10000611c(j), 
                                                                                          100006280(j)  
       100006294 e8 23 40 f9     ldr        x8,[sp, #local_d70]
       100006298 a8 00 00 b4     cbz        x8,LAB_1000062ac
       10000629c 01 f5 7e d3     lsl        x1,x8,#0x2
       1000062a0 e0 1f 40 f9     ldr        x0,[sp, #local_d78]
       1000062a4 82 00 80 52     mov        w2,#0x4
       1000062a8 7f 41 00 94     bl         ___rust_dealloc                                  undefined ___rust_dealloc()
                             LAB_1000062ac                                   XREF[1]:     100006298(j)  
       1000062ac e1 2f 40 f9     ldr        x1,[sp, #local_d58]
       1000062b0 81 00 00 b4     cbz        x1,LAB_1000062c0
       1000062b4 e0 27 40 f9     ldr        x0,[sp, #local_d68]
       1000062b8 22 00 80 52     mov        w2,#0x1
       1000062bc 7a 41 00 94     bl         ___rust_dealloc                                  undefined ___rust_dealloc()
                             LAB_1000062c0                                   XREF[1]:     1000062b0(j)  
       1000062c0 b5 00 00 b4     cbz        x21,LAB_1000062d4
       1000062c4 e0 33 40 f9     ldr        x0,[sp, #local_d50]
       1000062c8 e1 03 15 aa     mov        x1,x21
       1000062cc 22 00 80 52     mov        w2,#0x1
       1000062d0 75 41 00 94     bl         ___rust_dealloc                                  undefined ___rust_dealloc()
                             LAB_1000062d4                                   XREF[1]:     1000062c0(j)  
       1000062d4 e1 3b 40 f9     ldr        x1,[sp, #local_d40]
       1000062d8 81 00 00 b4     cbz        x1,LAB_1000062e8
       1000062dc e0 37 40 f9     ldr        x0,[sp, #local_d48]
                             LAB_1000062e0                                   XREF[1]:     1000053a4(j)  
       1000062e0 22 00 80 52     mov        w2,#0x1
       1000062e4 70 41 00 94     bl         ___rust_dealloc                                  undefined ___rust_dealloc()
                             LAB_1000062e8                                   XREF[2]:     100005398(j), 1000062d8(j)  
       1000062e8 b3 00 00 b4     cbz        x19,LAB_1000062fc
       1000062ec e0 03 1c aa     mov        x0,x28
       1000062f0 e1 03 13 aa     mov        x1,x19
                             LAB_1000062f4                                   XREF[1]:     1000069ac(j)  
       1000062f4 22 00 80 52     mov        w2,#0x1
                             LAB_1000062f8                                   XREF[1]:     100005634(j)  
       1000062f8 6b 41 00 94     bl         ___rust_dealloc                                  undefined ___rust_dealloc()
                             LAB_1000062fc                                   XREF[3]:     100005624(j), 1000062e8(j), 
                                                                                          1000069a0(j)  
       1000062fc 1a 00 80 d2     mov        x26,#0x0
       100006300 70 00 00 14     b          LAB_1000064c0
                             LAB_100006304                                   XREF[1]:     100006174(j)  
       100006304 e8 07 45 b9     ldr        w8,[sp, #local_8b0[4]]
       100006308 a8 03 16 b8     stur       w8,[x29, #local_b0[0]]
       10000630c e1 04 00 f0     adrp       x1,0x1000a5000
       100006310 21 a0 0c 91     add        x1=>DAT_1000a5328,x1,#0x328                      = 54h    T
       100006314 a0 83 02 d1     sub        x0,x29,#0xa0
       100006318 02 01 80 52     mov        w2,#0x8
       10000631c 21 32 00 94     bl         std::io::Write::write_all                        undefined write_all()
       100006320 60 03 00 b5     cbnz       x0,LAB_10000638c
       100006324 a0 83 02 d1     sub        x0,x29,#0xa0
       100006328 a1 03 03 d1     sub        x1,x29,#0xc0
       10000632c 02 04 80 52     mov        w2,#0x20
       100006330 1c 32 00 94     bl         std::io::Write::write_all                        undefined write_all()
       100006334 c0 02 00 b5     cbnz       x0,LAB_10000638c
       100006338 a0 83 02 d1     sub        x0,x29,#0xa0
       10000633c e1 c3 13 91     add        x1,sp,#0x4f0
       100006340 82 01 80 52     mov        w2,#0xc
       100006344 17 32 00 94     bl         std::io::Write::write_all                        undefined write_all()
       100006348 20 02 00 b5     cbnz       x0,LAB_10000638c
       10000634c a0 83 02 d1     sub        x0,x29,#0xa0
       100006350 e1 83 02 91     add        x1,sp,#0xa0
       100006354 02 04 80 52     mov        w2,#0x20
       100006358 12 32 00 94     bl         std::io::Write::write_all                        undefined write_all()
       10000635c 80 01 00 b5     cbnz       x0,LAB_10000638c
       100006360 f9 83 02 91     add        x25,sp,#0xa0
       100006364 a0 83 02 d1     sub        x0,x29,#0xa0
       100006368 21 83 00 91     add        x1,x25,#0x20
       10000636c 02 04 80 52     mov        w2,#0x20
       100006370 0c 32 00 94     bl         std::io::Write::write_all                        undefined write_all()
       100006374 c0 00 00 b5     cbnz       x0,LAB_10000638c
       100006378 a0 83 02 d1     sub        x0,x29,#0xa0
       10000637c 21 03 01 91     add        x1,x25,#0x40
       100006380 02 04 80 52     mov        w2,#0x20
       100006384 07 32 00 94     bl         std::io::Write::write_all                        undefined write_all()
       100006388 00 18 00 b4     cbz        x0,LAB_100006688
                             LAB_10000638c                                   XREF[6]:     100006320(j), 100006334(j), 
                                                                                          100006348(j), 10000635c(j), 
                                                                                          100006374(j), 1000066e8(j)  
       10000638c 35 5b 02 94     bl         anyhow::error::_<>::from                         undefined from()
                             LAB_100006390                                   XREF[2]:     1000066ac(j), 1000066d0(j)  
       100006390 fb 03 00 aa     mov        x27,x0
       100006394 f4 0f 40 f9     ldr        x20,[sp, #local_d98]
       100006398 a0 03 56 b8     ldur       w0,[x29, #local_b0[0]]
       10000639c 52 62 02 94     bl         _close                                           int _close(int param_1)
                             LAB_1000063a0                                   XREF[1]:     100006180(j)  
       1000063a0 b8 00 00 b4     cbz        x24,LAB_1000063b4
       1000063a4 e0 37 40 f9     ldr        x0,[sp, #local_d48]
       1000063a8 e1 03 18 aa     mov        x1,x24
       1000063ac 22 00 80 52     mov        w2,#0x1
       1000063b0 3d 41 00 94     bl         ___rust_dealloc                                  undefined ___rust_dealloc()
                             LAB_1000063b4                                   XREF[2]:     100005914(j), 1000063a0(j)  
       1000063b4 d7 03 00 b4     cbz        x23,LAB_10000642c
       1000063b8 e1 f6 7e d3     lsl        x1,x23,#0x2
       1000063bc e0 0b 40 f9     ldr        x0,[sp, #local_da0]
       1000063c0 82 00 80 52     mov        w2,#0x4
       1000063c4 19 00 00 14     b          LAB_100006428
                             LAB_1000063c8                                   XREF[1]:     100006060(j)  
       1000063c8 f9 53 4a a9     ldp        x25,x20,[sp, #local_d10[0]]
       1000063cc e1 63 44 f9     ldr        x1,[sp, #local_4f0[0]]
       1000063d0 81 00 00 b4     cbz        x1,LAB_1000063e0
       1000063d4 e0 67 44 f9     ldr        x0,[sp, #local_4f0[8]]
       1000063d8 22 00 80 52     mov        w2,#0x1
       1000063dc 32 41 00 94     bl         ___rust_dealloc                                  undefined ___rust_dealloc()
                             LAB_1000063e0                                   XREF[3]:     10000607c(j), 100006188(j), 
                                                                                          1000063d0(j)  
       1000063e0 f9 6b 04 f9     str        x25,[sp, #local_4e0]
       1000063e4 f4 6f 04 f9     str        x20,[sp, #local_4d8]
       1000063e8 e8 43 04 91     add        x8,sp,#0x110
       1000063ec f4 0f 40 f9     ldr        x20,[sp, #local_d98]
       1000063f0 d0 d9 01 94     bl         std::backtrace::Backtrace::capture               undefined capture()
       1000063f4 e8 04 00 d0     adrp       x8,0x1000a4000
       1000063f8 08 21 34 91     add        x8,x8,#0xd08
       1000063fc 49 01 80 52     mov        w9,#0xa
       100006400 e8 63 04 f9     str        x8=>DAT_1000a4d08,[sp, #local_4f0[0]]            = 68h    h
       100006404 e9 67 04 f9     str        x9,[sp, #local_4f0[8]]
       100006408 e0 03 23 91     add        x0,sp,#0x8c0
       10000640c e1 43 04 91     add        x1,sp,#0x110
       100006410 65 5a 02 94     bl         anyhow::error::_<>::construct                    undefined construct()
       100006414 fb 03 00 aa     mov        x27,x0
                             LAB_100006418                                   XREF[2]:     100006670(j), 100006684(j)  
       100006418 e1 2f 40 f9     ldr        x1,[sp, #local_d58]
       10000641c 81 00 00 b4     cbz        x1,LAB_10000642c
       100006420 e0 13 40 f9     ldr        x0,[sp, #local_d90]
       100006424 22 00 80 52     mov        w2,#0x1
                             LAB_100006428                                   XREF[1]:     1000063c4(j)  
       100006428 1f 41 00 94     bl         ___rust_dealloc                                  undefined ___rust_dealloc()
                             LAB_10000642c                                   XREF[2]:     1000063b4(j), 10000641c(j)  
       10000642c e1 1b 40 f9     ldr        x1,[sp, #local_d80]
       100006430 81 00 00 b4     cbz        x1,LAB_100006440
                             LAB_100006434                                   XREF[2]:     100006204(j), 100006604(j)  
       100006434 e0 03 1a aa     mov        x0,x26
       100006438 22 00 80 52     mov        w2,#0x1
       10000643c 1a 41 00 94     bl         ___rust_dealloc                                  undefined ___rust_dealloc()
                             LAB_100006440                                   XREF[3]:     100006208(j), 100006430(j), 
                                                                                          100006608(j)  
       100006440 fa 03 1b aa     mov        x26,x27
       100006444 f8 2f 40 b9     ldr        w24,[sp, #local_d84]
       100006448 e8 23 40 f9     ldr        x8,[sp, #local_d70]
       10000644c e1 df 45 a9     ldp        x1,x23,[sp, #local_d58]
       100006450 3f f8 40 f2     tst        x1,#0x7fffffffffffffff
       100006454 a0 00 00 54     b.eq       LAB_100006468
                             LAB_100006458                                   XREF[1]:     1000053f4(j)  
       100006458 88 00 00 36     tbz        w8,#0x0,LAB_100006468
       10000645c e0 13 40 f9     ldr        x0,[sp, #local_d90]
       100006460 22 00 80 52     mov        w2,#0x1
       100006464 10 41 00 94     bl         ___rust_dealloc                                  undefined ___rust_dealloc()
                             LAB_100006468                                   XREF[3]:     1000053f8(j), 100006454(j), 
                                                                                          100006458(j)  
       100006468 ff fa 40 f2     tst        x23,#0x7fffffffffffffff
       10000646c e8 03 98 1a     csel       w8,wzr,w24,eq
       100006470 a8 00 00 36     tbz        w8,#0x0,LAB_100006484
       100006474 e0 1f 40 f9     ldr        x0,[sp, #local_d78]
       100006478 e1 03 17 aa     mov        x1,x23
       10000647c 22 00 80 52     mov        w2,#0x1
       100006480 09 41 00 94     bl         ___rust_dealloc                                  undefined ___rust_dealloc()
                             LAB_100006484                                   XREF[1]:     100006470(j)  
       100006484 b4 00 00 b4     cbz        x20,LAB_100006498
       100006488 e0 03 1c aa     mov        x0,x28
       10000648c e1 03 14 aa     mov        x1,x20
       100006490 22 00 80 52     mov        w2,#0x1
       100006494 04 41 00 94     bl         ___rust_dealloc                                  undefined ___rust_dealloc()
                             LAB_100006498                                   XREF[1]:     100006484(j)  
       100006498 b6 00 00 b4     cbz        x22,LAB_1000064ac
       10000649c e0 3b 40 f9     ldr        x0,[sp, #local_d40]
       1000064a0 e1 03 16 aa     mov        x1,x22
       1000064a4 22 00 80 52     mov        w2,#0x1
       1000064a8 ff 40 00 94     bl         ___rust_dealloc                                  undefined ___rust_dealloc()
                             LAB_1000064ac                                   XREF[1]:     100006498(j)  
       1000064ac b5 00 00 b4     cbz        x21,LAB_1000064c0
       1000064b0 e0 03 13 aa     mov        x0,x19
       1000064b4 e1 03 15 aa     mov        x1,x21
                             LAB_1000064b8                                   XREF[1]:     100005490(j)  
       1000064b8 22 00 80 52     mov        w2,#0x1
       1000064bc fa 40 00 94     bl         ___rust_dealloc                                  undefined ___rust_dealloc()
                             LAB_1000064c0                                   XREF[3]:     100005484(j), 100006300(j), 
                                                                                          1000064ac(j)  
       1000064c0 e0 03 1a aa     mov        x0,x26
       1000064c4 ff 43 35 91     add        sp,sp,#0xd50
       1000064c8 fd 7b 45 a9     ldp        x29=>local_10,x30,[sp, #0x50]
       1000064cc f4 4f 44 a9     ldp        x20,x19,[sp, #local_20]
       1000064d0 f6 57 43 a9     ldp        x22,x21,[sp, #local_30]
       1000064d4 f8 5f 42 a9     ldp        x24,x23,[sp, #local_40]
       1000064d8 fa 67 41 a9     ldp        x26,x25,[sp, #local_50]
       1000064dc fc 6f c6 a8     ldp        x28,x27,[sp], #0x60
       1000064e0 c0 03 5f d6     ret
                             LAB_1000064e4                                   XREF[1]:     100005980(j)  
       1000064e4 9f 83 00 f1     cmp        x28,#0x20
       1000064e8 81 04 00 54     b.ne       LAB_100006578
       1000064ec 28 03 40 b9     ldr        w8,[x25]
       1000064f0 a8 03 10 b8     stur       w8,[x29, #local_110]
       1000064f4 28 33 40 b8     ldur       w8,[x25, #0x3]
       1000064f8 a9 03 04 d1     sub        x9,x29,#0x100
       1000064fc 28 31 00 b8     stur       w8,[x9, #local_110+0x3]
       100006500 3c 73 40 f8     ldur       x28,[x25, #0x7]
       100006504 20 f3 c0 3c     ldur       q0,[x25, #0xf]
       100006508 20 19 80 3d     str        q0,[x9, #local_b0[0]]
       10000650c 28 7f 40 39     ldrb       w8,[x25, #0x1f]
       100006510 a8 03 17 38     sturb      w8,[x29, #local_a0]
       100006514 b4 00 00 b4     cbz        x20,LAB_100006528
       100006518 e0 03 19 aa     mov        x0,x25
       10000651c e1 03 14 aa     mov        x1,x20
       100006520 22 00 80 52     mov        w2,#0x1
       100006524 e0 40 00 94     bl         ___rust_dealloc                                  undefined ___rust_dealloc()
                             LAB_100006528                                   XREF[1]:     100006514(j)  
       100006528 a8 03 50 b8     ldur       w8,[x29, #local_110]
       10000652c a8 03 14 b8     stur       w8,[x29, #local_d0[0]]
       100006530 a9 03 04 d1     sub        x9,x29,#0x100
       100006534 28 31 40 b8     ldur       w8,[x9, #local_110+0x3]
       100006538 28 31 04 b8     stur       w8,[x9, #local_d0[3]]
       10000653c 20 19 c0 3d     ldr        q0,[x9, #local_b0[0]]
       100006540 e0 2b 80 3d     str        q0,[sp, #local_d10[0]]
       100006544 a8 03 57 38     ldurb      w8,[x29, #local_a0]
       100006548 20 f1 84 3c     stur       q0,[x9, #local_d0[15]]
       10000654c a8 f3 15 38     sturb      w8,[x29, #Stack[-0xb1]]
       100006550 3c 71 04 f8     stur       x28,[x9, #local_d0[7]]
       100006554 fc 2b 40 f9     ldr        x28,[sp, #local_d60]
       100006558 e8 33 40 f9     ldr        x8,[sp, #local_d50]
       10000655c f9 0b 40 f9     ldr        x25,[sp, #local_da0]
       100006560 28 8a ff b4     cbz        x8,LAB_1000056a4
       100006564 e0 1f 40 f9     ldr        x0,[sp, #local_d78]
       100006568 e1 33 40 f9     ldr        x1,[sp, #local_d50]
       10000656c 22 00 80 52     mov        w2,#0x1
       100006570 cd 40 00 94     bl         ___rust_dealloc                                  undefined ___rust_dealloc()
       100006574 4c fc ff 17     b          LAB_1000056a4
                             LAB_100006578                                   XREF[1]:     1000064e8(j)  
       100006578 bc 83 11 f8     stur       x28,[x29, #local_f8[0]]
       10000657c e8 04 00 f0     adrp       x8,0x1000a5000
       100006580 08 e1 0c 91     add        x8,x8,#0x338
       100006584 a9 04 00 90     adrp       x9,0x10009a000
       100006588 29 11 39 91     add        x9,x9,#0xe44
       10000658c e8 63 04 f9     str        x8=>DAT_1000a5338,[sp, #local_4f0[0]]            = 0000000000000020h
       100006590 e9 67 04 f9     str        x9=>core::fmt::num::imp::_<>::fmt,[sp, #local_
       100006594 a8 a3 03 d1     sub        x8,x29,#0xe8
       100006598 e8 6b 04 f9     str        x8,[sp, #local_4e0]
       10000659c e9 6f 04 f9     str        x9=>core::fmt::num::imp::_<>::fmt,[sp, #local_
       1000065a0 28 06 00 d0     adrp       x8,0x1000cc000
       1000065a4 08 c1 0a 91     add        x8,x8,#0x2b0
       1000065a8 49 00 80 52     mov        w9,#0x2
       1000065ac e8 27 11 a9     stp        x8=>PTR_DAT_1000cc2b0,x9,[sp, #local_ca0[0]]     = 1000a4d12
       1000065b0 e9 ff 12 a9     stp        x9,xzr,[sp, #local_c90[8]]
       1000065b4 e8 03 23 91     add        x8,sp,#0x8c0
       1000065b8 e8 93 00 f9     str        x8,[sp, #local_c90[0]]
       1000065bc e8 03 14 91     add        x8,sp,#0x500
       1000065c0 e0 43 04 91     add        x0,sp,#0x110
       1000065c4 87 3c 02 94     bl         alloc::fmt::format::format_inner                 undefined format_inner()
       1000065c8 e0 03 14 91     add        x0,sp,#0x500
       1000065cc b1 59 02 94     bl         anyhow::error::_<>::msg                          undefined msg()
       1000065d0 fb 03 00 aa     mov        x27,x0
       1000065d4 fc 2b 40 f9     ldr        x28,[sp, #local_d60]
       1000065d8 b4 00 00 b4     cbz        x20,LAB_1000065ec
       1000065dc e0 03 19 aa     mov        x0,x25
       1000065e0 e1 03 14 aa     mov        x1,x20
       1000065e4 22 00 80 52     mov        w2,#0x1
       1000065e8 af 40 00 94     bl         ___rust_dealloc                                  undefined ___rust_dealloc()
                             LAB_1000065ec                                   XREF[1]:     1000065d8(j)  
       1000065ec f4 0f 40 f9     ldr        x20,[sp, #local_d98]
       1000065f0 e1 33 40 f9     ldr        x1,[sp, #local_d50]
       1000065f4 81 df ff b5     cbnz       x1,LAB_1000061e4
                             LAB_1000065f8                                   XREF[1]:     1000061e0(j)  
       1000065f8 28 00 80 52     mov        w8,#0x1
       1000065fc e8 23 00 f9     str        x8,[sp, #local_d70]
       100006600 e1 1b 40 f9     ldr        x1,[sp, #local_d80]
       100006604 81 f1 ff b5     cbnz       x1,LAB_100006434
       100006608 8e ff ff 17     b          LAB_100006440
                             LAB_10000660c                                   XREF[1]:     100006084(j)  
       10000660c f7 03 01 aa     mov        x23,x1
       100006610 f4 53 00 f9     str        x20,[sp, #local_d10[0]]
       100006614 e8 04 00 f0     adrp       x8,0x1000a5000
       100006618 08 c1 0c 91     add        x8,x8,#0x330
       10000661c a9 04 00 90     adrp       x9,0x10009a000
       100006620 29 11 39 91     add        x9,x9,#0xe44
       100006624 e8 63 04 f9     str        x8=>DAT_1000a5330,[sp, #local_4f0[0]]            = 0Ch
       100006628 e9 67 04 f9     str        x9=>core::fmt::num::imp::_<>::fmt,[sp, #local_
       10000662c e8 83 02 91     add        x8,sp,#0xa0
       100006630 e8 6b 04 f9     str        x8,[sp, #local_4e0]
       100006634 e9 6f 04 f9     str        x9=>core::fmt::num::imp::_<>::fmt,[sp, #local_
       100006638 28 06 00 d0     adrp       x8,0x1000cc000
       10000663c 08 c1 0a 91     add        x8,x8,#0x2b0
       100006640 49 00 80 52     mov        w9,#0x2
       100006644 e8 27 11 a9     stp        x8=>PTR_DAT_1000cc2b0,x9,[sp, #local_ca0[0]]     = 1000a4d12
       100006648 e9 ff 12 a9     stp        x9,xzr,[sp, #local_c90[8]]
       10000664c e8 03 23 91     add        x8,sp,#0x8c0
       100006650 e8 93 00 f9     str        x8,[sp, #local_c90[0]]
       100006654 e8 03 14 91     add        x8,sp,#0x500
       100006658 e0 43 04 91     add        x0,sp,#0x110
       10000665c 61 3c 02 94     bl         alloc::fmt::format::format_inner                 undefined format_inner()
       100006660 e0 03 14 91     add        x0,sp,#0x500
       100006664 8b 59 02 94     bl         anyhow::error::_<>::msg                          undefined msg()
       100006668 fb 03 00 aa     mov        x27,x0
       10000666c f4 0f 40 f9     ldr        x20,[sp, #local_d98]
       100006670 57 ed ff b4     cbz        x23,LAB_100006418
       100006674 e0 03 19 aa     mov        x0,x25
       100006678 e1 03 17 aa     mov        x1,x23
       10000667c 22 00 80 52     mov        w2,#0x1
       100006680 89 40 00 94     bl         ___rust_dealloc                                  undefined ___rust_dealloc()
       100006684 65 ff ff 17     b          LAB_100006418
                             LAB_100006688                                   XREF[1]:     100006388(j)  
       100006688 e8 03 41 b9     ldr        w8,[sp, #local_cb0]
       10000668c e8 c3 08 b9     str        w8,[sp, #local_4f0[0]]
       100006690 a0 83 02 d1     sub        x0,x29,#0xa0
       100006694 e1 03 23 91     add        x1,sp,#0x8c0
       100006698 82 00 80 52     mov        w2,#0x4
       10000669c 41 31 00 94     bl         std::io::Write::write_all                        undefined write_all()
       1000066a0 80 00 00 b4     cbz        x0,LAB_1000066b0
       1000066a4 fc 2b 40 f9     ldr        x28,[sp, #local_d60]
       1000066a8 6e 5a 02 94     bl         anyhow::error::_<>::from                         undefined from()
       1000066ac 39 ff ff 17     b          LAB_100006390
                             LAB_1000066b0                                   XREF[1]:     1000066a0(j)  
       1000066b0 f4 c3 08 b9     str        w20,[sp, #local_4f0[0]]
       1000066b4 a0 83 02 d1     sub        x0,x29,#0xa0
       1000066b8 e1 03 23 91     add        x1,sp,#0x8c0
       1000066bc 82 00 80 52     mov        w2,#0x4
       1000066c0 38 31 00 94     bl         std::io::Write::write_all                        undefined write_all()
       1000066c4 80 00 00 b4     cbz        x0,LAB_1000066d4
       1000066c8 fc 2b 40 f9     ldr        x28,[sp, #local_d60]
       1000066cc 65 5a 02 94     bl         anyhow::error::_<>::from                         undefined from()
       1000066d0 30 ff ff 17     b          LAB_100006390
                             LAB_1000066d4                                   XREF[1]:     1000066c4(j)  
       1000066d4 a0 83 02 d1     sub        x0,x29,#0xa0
       1000066d8 e1 37 40 f9     ldr        x1,[sp, #local_d48]
       1000066dc e2 03 14 aa     mov        x2,x20
       1000066e0 fc 2b 40 f9     ldr        x28,[sp, #local_d60]
       1000066e4 2f 31 00 94     bl         std::io::Write::write_all                        undefined write_all()
       1000066e8 20 e5 ff b5     cbnz       x0,LAB_10000638c
       1000066ec a0 03 56 b8     ldur       w0,[x29, #local_b0[0]]
       1000066f0 7d 61 02 94     bl         _close                                           int _close(int param_1)
       1000066f4 fc 83 02 f9     str        x28,[sp, #local_8b0[0]]
       1000066f8 e8 27 40 f9     ldr        x8,[sp, #local_d68]
       1000066fc e8 87 02 f9     str        x8,[sp, #local_8b0[8]]
       100006700 e8 03 14 91     add        x8,sp,#0x500
       100006704 e9 03 00 90     adrp       x9,0x100082000
       100006708 29 31 0e 91     add        x9,x9,#0x38c
       10000670c a8 27 36 a9     stp        x8,x9=>_<>::fmt,[x29, #local_b0[0]]
       100006710 28 06 00 d0     adrp       x8,0x1000cc000
       100006714 08 01 12 91     add        x8,x8,#0x480
       100006718 49 00 80 52     mov        w9,#0x2
       10000671c e8 63 04 f9     str        x8=>PTR_DAT_1000cc480,[sp, #local_4f0[0]]        = 1000a4e4e
       100006720 e9 67 04 f9     str        x9,[sp, #local_4f0[8]]
       100006724 ff 73 04 f9     str        xzr,[sp, #local_4d0[0]]
       100006728 a8 83 02 d1     sub        x8,x29,#0xa0
       10000672c 29 00 80 52     mov        w9,#0x1
       100006730 e8 6b 04 f9     str        x8,[sp, #local_4e0]
       100006734 e9 6f 04 f9     str        x9,[sp, #local_4d8]
       100006738 e0 03 23 91     add        x0,sp,#0x8c0
       10000673c 86 e6 01 94     bl         std::io::stdio::_print                           undefined _print()
       100006740 a8 03 04 d1     sub        x8,x29,#0x100
       100006744 a0 03 03 d1     sub        x0,x29,#0xc0
       100006748 01 04 80 52     mov        w1,#0x20
       10000674c 98 3d 00 94     bl         hex::encode                                      undefined encode()
       100006750 bb 83 02 d1     sub        x27,x29,#0xa0
       100006754 a8 83 02 d1     sub        x8,x29,#0xa0
       100006758 e0 c3 13 91     add        x0,sp,#0x4f0
       10000675c 81 01 80 52     mov        w1,#0xc
       100006760 93 3d 00 94     bl         hex::encode                                      undefined encode()
       100006764 a8 03 04 d1     sub        x8,x29,#0x100
       100006768 f4 ff ff 90     adrp       x20,0x100002000
       10000676c 94 82 2c 91     add        x20,x20,#0xb20
       100006770 e8 83 02 f9     str        x8,[sp, #local_8b0[0]]
       100006774 f4 87 02 f9     str        x20=>_<>::fmt,[sp, #local_8b0[8]]
       100006778 fb 8b 02 f9     str        x27,[sp, #local_8a0]
       10000677c f4 8f 02 f9     str        x20=>_<>::fmt,[sp, #local_898]
       100006780 28 06 00 d0     adrp       x8,0x1000cc000
       100006784 08 81 12 91     add        x8,x8,#0x4a0
       100006788 69 00 80 52     mov        w9,#0x3
       10000678c e8 63 04 f9     str        x8=>PTR_DAT_1000cc4a0,[sp, #local_4f0[0]]        = 1000a4d74
       100006790 e9 67 04 f9     str        x9,[sp, #local_4f0[8]]
       100006794 ff 73 04 f9     str        xzr,[sp, #local_4d0[0]]
       100006798 e8 03 14 91     add        x8,sp,#0x500
       10000679c 49 00 80 52     mov        w9,#0x2
       1000067a0 e8 6b 04 f9     str        x8,[sp, #local_4e0]
       1000067a4 e9 6f 04 f9     str        x9,[sp, #local_4d8]
       1000067a8 e0 03 23 91     add        x0,sp,#0x8c0
       1000067ac 6a e6 01 94     bl         std::io::stdio::_print                           undefined _print()
       1000067b0 a1 03 56 f8     ldur       x1,[x29, #local_b0[0]]
       1000067b4 81 00 00 b4     cbz        x1,LAB_1000067c4
       1000067b8 a0 83 56 f8     ldur       x0=>_<>::fmt,[x29, #local_b0[8]]
       1000067bc 22 00 80 52     mov        w2,#0x1
       1000067c0 39 40 00 94     bl         ___rust_dealloc                                  undefined ___rust_dealloc()
                             LAB_1000067c4                                   XREF[1]:     1000067b4(j)  
       1000067c4 a1 03 50 f8     ldur       x1,[x29, #local_110]
       1000067c8 81 00 00 b4     cbz        x1,LAB_1000067d8
       1000067cc a0 83 50 f8     ldur       x0,[x29, #local_108]
       1000067d0 22 00 80 52     mov        w2,#0x1
       1000067d4 34 40 00 94     bl         ___rust_dealloc                                  undefined ___rust_dealloc()
                             LAB_1000067d8                                   XREF[1]:     1000067c8(j)  
       1000067d8 fb 03 14 91     add        x27,sp,#0x500
       1000067dc e8 03 14 91     add        x8,sp,#0x500
       1000067e0 e0 83 02 91     add        x0,sp,#0xa0
       1000067e4 01 04 80 52     mov        w1,#0x20
       1000067e8 71 3d 00 94     bl         hex::encode                                      undefined encode()
       1000067ec bb 53 36 a9     stp        x27,x20=>_<>::fmt,[x29, #local_b0[0]]
       1000067f0 28 06 00 d0     adrp       x8,0x1000cc000
       1000067f4 08 41 0b 91     add        x8,x8,#0x2d0
       1000067f8 49 00 80 52     mov        w9,#0x2
       1000067fc e8 63 04 f9     str        x8=>PTR_DAT_1000cc2d0,[sp, #local_4f0[0]]        = 1000a4d27
       100006800 e9 67 04 f9     str        x9,[sp, #local_4f0[8]]
       100006804 ff 73 04 f9     str        xzr,[sp, #local_4d0[0]]
       100006808 a8 83 02 d1     sub        x8,x29,#0xa0
       10000680c 29 00 80 52     mov        w9,#0x1
       100006810 e8 6b 04 f9     str        x8,[sp, #local_4e0]
       100006814 e9 6f 04 f9     str        x9,[sp, #local_4d8]
       100006818 e0 03 23 91     add        x0,sp,#0x8c0
       10000681c 4e e6 01 94     bl         std::io::stdio::_print                           undefined _print()
       100006820 e1 83 42 f9     ldr        x1,[sp, #local_8b0[0]]
       100006824 81 00 00 b4     cbz        x1,LAB_100006834
       100006828 e0 87 42 f9     ldr        x0=>_<>::fmt,[sp, #local_8b0[8]]
       10000682c 22 00 80 52     mov        w2,#0x1
       100006830 1d 40 00 94     bl         ___rust_dealloc                                  undefined ___rust_dealloc()
                             LAB_100006834                                   XREF[1]:     100006824(j)  
       100006834 fb 03 14 91     add        x27,sp,#0x500
       100006838 e8 03 14 91     add        x8,sp,#0x500
       10000683c 20 83 00 91     add        x0,x25,#0x20
       100006840 01 04 80 52     mov        w1,#0x20
       100006844 5a 3d 00 94     bl         hex::encode                                      undefined encode()
       100006848 bb 53 36 a9     stp        x27,x20=>_<>::fmt,[x29, #local_b0[0]]
       10000684c 28 06 00 d0     adrp       x8,0x1000cc000
       100006850 08 c1 0b 91     add        x8,x8,#0x2f0
       100006854 49 00 80 52     mov        w9,#0x2
       100006858 e8 63 04 f9     str        x8=>PTR_DAT_1000cc2f0,[sp, #local_4f0[0]]        = 1000a4d3b
       10000685c e9 67 04 f9     str        x9,[sp, #local_4f0[8]]
       100006860 ff 73 04 f9     str        xzr,[sp, #local_4d0[0]]
       100006864 a8 83 02 d1     sub        x8,x29,#0xa0
       100006868 29 00 80 52     mov        w9,#0x1
       10000686c e8 6b 04 f9     str        x8,[sp, #local_4e0]
       100006870 e9 6f 04 f9     str        x9,[sp, #local_4d8]
       100006874 e0 03 23 91     add        x0,sp,#0x8c0
       100006878 37 e6 01 94     bl         std::io::stdio::_print                           undefined _print()
       10000687c e8 83 02 91     add        x8,sp,#0xa0
       100006880 1b 81 01 91     add        x27,x8,#0x60
       100006884 e1 83 42 f9     ldr        x1,[sp, #local_8b0[0]]
       100006888 81 00 00 b4     cbz        x1,LAB_100006898
       10000688c e0 87 42 f9     ldr        x0=>_<>::fmt,[sp, #local_8b0[8]]
       100006890 22 00 80 52     mov        w2,#0x1
       100006894 04 40 00 94     bl         ___rust_dealloc                                  undefined ___rust_dealloc()
                             LAB_100006898                                   XREF[1]:     100006888(j)  
       100006898 a8 04 00 90     adrp       x8,0x10009a000
       10000689c 08 51 2a 91     add        x8,x8,#0xa94
       1000068a0 fb 83 02 f9     str        x27,[sp, #local_8b0[0]]
       1000068a4 e8 87 02 f9     str        x8=>core::fmt::num::imp::_<>::fmt,[sp, #local_
       1000068a8 28 06 00 d0     adrp       x8,0x1000cc000
       1000068ac 08 41 0c 91     add        x8,x8,#0x310
       1000068b0 49 00 80 52     mov        w9,#0x2
       1000068b4 e8 63 04 f9     str        x8=>PTR_DAT_1000cc310,[sp, #local_4f0[0]]        = 1000a4d56
       1000068b8 e9 67 04 f9     str        x9,[sp, #local_4f0[8]]
       1000068bc ff 73 04 f9     str        xzr,[sp, #local_4d0[0]]
       1000068c0 e8 03 14 91     add        x8,sp,#0x500
       1000068c4 29 00 80 52     mov        w9,#0x1
       1000068c8 e8 6b 04 f9     str        x8,[sp, #local_4e0]
       1000068cc e9 6f 04 f9     str        x9,[sp, #local_4d8]
       1000068d0 e0 03 23 91     add        x0,sp,#0x8c0
       1000068d4 20 e6 01 94     bl         std::io::stdio::_print                           undefined _print()
       1000068d8 fb 03 14 91     add        x27,sp,#0x500
       1000068dc e8 03 14 91     add        x8,sp,#0x500
       1000068e0 20 03 01 91     add        x0,x25,#0x40
       1000068e4 01 04 80 52     mov        w1,#0x20
       1000068e8 31 3d 00 94     bl         hex::encode                                      undefined encode()
       1000068ec bb 53 36 a9     stp        x27,x20=>_<>::fmt,[x29, #local_b0[0]]
       1000068f0 28 06 00 d0     adrp       x8,0x1000cc000
       1000068f4 08 c1 0c 91     add        x8,x8,#0x330
       1000068f8 49 00 80 52     mov        w9,#0x2
       1000068fc e8 63 04 f9     str        x8=>PTR_DAT_1000cc330,[sp, #local_4f0[0]]        = 1000a4d61
       100006900 e9 67 04 f9     str        x9,[sp, #local_4f0[8]]
       100006904 ff 73 04 f9     str        xzr,[sp, #local_4d0[0]]
       100006908 a8 83 02 d1     sub        x8,x29,#0xa0
       10000690c 29 00 80 52     mov        w9,#0x1
       100006910 e8 6b 04 f9     str        x8,[sp, #local_4e0]
       100006914 e9 6f 04 f9     str        x9,[sp, #local_4d8]
       100006918 e0 03 23 91     add        x0,sp,#0x8c0
       10000691c 0e e6 01 94     bl         std::io::stdio::_print                           undefined _print()
       100006920 e1 83 42 f9     ldr        x1,[sp, #local_8b0[0]]
       100006924 81 00 00 b4     cbz        x1,LAB_100006934
       100006928 e0 87 42 f9     ldr        x0=>core::fmt::num::imp::_<>::fmt,[sp, #local_
       10000692c 22 00 80 52     mov        w2,#0x1
       100006930 dd 3f 00 94     bl         ___rust_dealloc                                  undefined ___rust_dealloc()
                             LAB_100006934                                   XREF[1]:     100006924(j)  
       100006934 b8 00 00 b4     cbz        x24,LAB_100006948
       100006938 e0 37 40 f9     ldr        x0,[sp, #local_d48]
       10000693c e1 03 18 aa     mov        x1,x24
       100006940 22 00 80 52     mov        w2,#0x1
       100006944 d8 3f 00 94     bl         ___rust_dealloc                                  undefined ___rust_dealloc()
                             LAB_100006948                                   XREF[1]:     100006934(j)  
       100006948 b7 00 00 b4     cbz        x23,LAB_10000695c
       10000694c e1 f6 7e d3     lsl        x1,x23,#0x2
       100006950 e0 0b 40 f9     ldr        x0,[sp, #local_da0]
       100006954 82 00 80 52     mov        w2,#0x4
       100006958 d3 3f 00 94     bl         ___rust_dealloc                                  undefined ___rust_dealloc()
                             LAB_10000695c                                   XREF[1]:     100006948(j)  
       10000695c e8 1b 40 f9     ldr        x8,[sp, #local_d80]
       100006960 a8 00 00 b4     cbz        x8,LAB_100006974
       100006964 e0 03 1a aa     mov        x0,x26
       100006968 e1 1b 40 f9     ldr        x1,[sp, #local_d80]
       10000696c 22 00 80 52     mov        w2,#0x1
       100006970 cd 3f 00 94     bl         ___rust_dealloc                                  undefined ___rust_dealloc()
                             LAB_100006974                                   XREF[1]:     100006960(j)  
       100006974 e8 0f 40 f9     ldr        x8,[sp, #local_d98]
       100006978 a8 00 00 b4     cbz        x8,LAB_10000698c
       10000697c e0 2b 40 f9     ldr        x0,[sp, #local_d60]
       100006980 e1 0f 40 f9     ldr        x1,[sp, #local_d98]
       100006984 22 00 80 52     mov        w2,#0x1
       100006988 c7 3f 00 94     bl         ___rust_dealloc                                  undefined ___rust_dealloc()
                             LAB_10000698c                                   XREF[1]:     100006978(j)  
       10000698c b6 00 00 b4     cbz        x22,LAB_1000069a0
       100006990 e0 3b 40 f9     ldr        x0,[sp, #local_d40]
       100006994 e1 03 16 aa     mov        x1,x22
       100006998 22 00 80 52     mov        w2,#0x1
       10000699c c2 3f 00 94     bl         ___rust_dealloc                                  undefined ___rust_dealloc()
                             LAB_1000069a0                                   XREF[1]:     10000698c(j)  
       1000069a0 f5 ca ff b4     cbz        x21,LAB_1000062fc
       1000069a4 e0 03 13 aa     mov        x0,x19
       1000069a8 e1 03 15 aa     mov        x1,x21
       1000069ac 52 fe ff 17     b          LAB_1000062f4
                             LAB_1000069b0                                   XREF[10]:    100004d08(j), 100004d2c(j), 
                                                                                          100004d40(j), 100004da8(j), 
                                                                                          100004dd8(j), 100004dec(j), 
                                                                                          100004e68(j), 100004e7c(j), 
                                                                                          100004f00(j), 100004f14(j)  
       1000069b0 e8 03 32 91     add        x8,sp,#0xc80
       1000069b4 e9 ff ff 90     adrp       x9,0x100002000
       1000069b8 29 81 2c 91     add        x9,x9,#0xb20
       1000069bc a8 27 36 a9     stp        x8,x9=>_<>::fmt,[x29, #local_b0[0]]
       1000069c0 28 06 00 d0     adrp       x8,0x1000cc000
       1000069c4 08 41 15 91     add        x8,x8,#0x550
       1000069c8 49 00 80 52     mov        w9,#0x2
       1000069cc e8 27 0a a9     stp        x8=>PTR_s_The_subcommand_'_1000cc550,x9,[sp, #   = 1000a4b00
       1000069d0 a8 83 02 d1     sub        x8,x29,#0xa0
       1000069d4 29 00 80 52     mov        w9,#0x1
       1000069d8 e8 5b 00 f9     str        x8,[sp, #local_d10[16]]
       1000069dc e9 ff 0b a9     stp        x9,xzr,[sp, #local_cf8]
       1000069e0 a8 03 04 d1     sub        x8,x29,#0x100
       1000069e4 e0 83 02 91     add        x0,sp,#0xa0
       1000069e8 7e 3b 02 94     bl         alloc::fmt::format::format_inner                 undefined format_inner()
       1000069ec a1 03 04 d1     sub        x1,x29,#0x100
       1000069f0 40 00 80 52     mov        w0,#0x2
       1000069f4 d8 24 00 94     bl         clap_builder::error::Error<F>::raw               undefined raw()
       1000069f8 f3 03 00 aa     mov        x19,x0
       1000069fc e0 03 23 91     add        x0,sp,#0x8c0
       100006a00 72 ef ff 97     bl         core::ptr::drop_in_place<>                       undefined drop_in_place<clap_bui
       100006a04 e1 43 46 f9     ldr        x1,[sp, #local_130[0]]
       100006a08 61 01 00 b4     cbz        x1,LAB_100006a34
       100006a0c e0 47 46 f9     ldr        x0,[sp, #local_130[8]]
       100006a10 22 00 80 52     mov        w2,#0x1
       100006a14 a4 3f 00 94     bl         ___rust_dealloc                                  undefined ___rust_dealloc()
       100006a18 07 00 00 14     b          LAB_100006a34
                             LAB_100006a1c                                   XREF[1]:     100004cb0(j)  
       100006a1c e1 04 00 f0     adrp       x1,0x1000a5000
       100006a20 21 fc 01 91     add        x1=>DAT_1000a507f,x1,#0x7f                       = 41h    A
       100006a24 40 01 80 52     mov        w0,#0xa
       100006a28 42 06 80 52     mov        w2,#0x32
       100006a2c 42 24 00 94     bl         clap_builder::error::Error<F>::raw               undefined raw()
       100006a30 f3 03 00 aa     mov        x19,x0
                             LAB_100006a34                                   XREF[3]:     100005150(j), 100006a08(j), 
                                                                                          100006a18(j)  
       100006a34 e0 03 13 aa     mov        x0,x19
       100006a38 f8 18 00 94     bl         clap_builder::derive::format_error               undefined format_error()
       100006a3c f3 03 00 aa     mov        x19,x0
       100006a40 e0 8b 00 f9     str        x0,[sp, #local_ca0[0]]
       100006a44 e0 43 04 91     add        x0,sp,#0x110
       100006a48 42 25 00 94     bl         clap_builder::error::Error<F>::exit              undefined exit()
       100006a4c 74 00 00 14     b          LAB_100006c1c
                             LAB_100006a50                                   XREF[3]:     100004d70(j), 100004e1c(j), 
                                                                                          100004eac(j)  
       100006a50 a0 83 d1 3c     ldur       q0,[x29, #local_f8[0]]
       100006a54 a1 83 d2 3c     ldur       q1,[x29, #local_e8[0]]
       100006a58 a8 03 04 d1     sub        x8,x29,#0x100
       100006a5c 00 05 03 ad     stp        q0,q1,[x8, #local_b0[0]]
       100006a60 a8 83 53 f8     ldur       x8,[x29, #local_d8]
       100006a64 a8 03 18 f8     stur       x8,[x29, #local_90[0]]
       100006a68 e8 e3 01 91     add        x8,sp,#0x78
       100006a6c 69 00 00 90     adrp       x9,0x100012000
       100006a70 29 11 35 91     add        x9,x9,#0xd44
       100006a74 a8 27 34 a9     stp        x8,x9=>_<>::fmt,[x29, #local_d0[0]]
       100006a78 a8 83 02 d1     sub        x8,x29,#0xa0
       100006a7c 69 02 00 d0     adrp       x9,0x100054000
       100006a80 29 c1 25 91     add        x9,x9,#0x970
       100006a84 a8 27 35 a9     stp        x8,x9=>_<>::fmt,[x29, #local_d0[16]]
       100006a88 28 06 00 d0     adrp       x8,0x1000cc000
       100006a8c 08 01 38 91     add        x8,x8,#0xe00
       100006a90 e8 53 00 f9     str        x8=>_anon.637c5e7b3acc329e3c9842a2b5b4f57b.2,[   = 1000a5992
       100006a94 a8 03 03 d1     sub        x8,x29,#0xc0
       100006a98 e0 83 02 91     add        x0,sp,#0xa0
       100006a9c 49 00 80 52     mov        w9,#0x2
       100006aa0 09 a0 00 a9     stp        x9,x8,[x0, #local_d10[8]]
       100006aa4 09 fc 01 a9     stp        x9,xzr,[x0, #local_cf8]
       100006aa8 21 06 00 d0     adrp       x1,0x1000cc000
       100006aac 21 80 38 91     add        x1=>_anon.637c5e7b3acc329e3c9842a2b5b4f57b.4,x   = 1000a59c0
       100006ab0 2c 5f 02 94     bl         core::panicking::panic_fmt                       undefined panic_fmt()
                             -- Flow Override: CALL_RETURN (CALL_TERMINATOR)
       100006ab4 5a              ??         5Ah    Z
       100006ab5 00              ??         00h
       100006ab6 00              ??         00h
       100006ab7 14              ??         14h
                             LAB_100006ab8                                   XREF[1]:     100004f50(j)  
       100006ab8 a0 83 d1 3c     ldur       q0,[x29, #local_f8[0]]
       100006abc a1 83 d2 3c     ldur       q1,[x29, #local_e8[0]]
       100006ac0 a8 03 04 d1     sub        x8,x29,#0x100
       100006ac4 00 05 03 ad     stp        q0,q1,[x8, #local_b0[0]]
       100006ac8 a8 83 53 f8     ldur       x8,[x29, #local_d8]
       100006acc a8 03 18 f8     stur       x8,[x29, #local_90[0]]
       100006ad0 e8 e3 01 91     add        x8,sp,#0x78
       100006ad4 69 00 00 90     adrp       x9,0x100012000
       100006ad8 29 11 35 91     add        x9,x9,#0xd44
       100006adc a8 27 34 a9     stp        x8,x9=>_<>::fmt,[x29, #local_d0[0]]
       100006ae0 68 02 00 d0     adrp       x8,0x100054000
       100006ae4 08 c1 25 91     add        x8,x8,#0x970
       100006ae8 a9 83 02 d1     sub        x9,x29,#0xa0
       100006aec a9 23 35 a9     stp        x9,x8=>_<>::fmt,[x29, #local_d0[16]]
       100006af0 28 06 00 d0     adrp       x8,0x1000cc000
       100006af4 08 01 38 91     add        x8,x8,#0xe00
       100006af8 49 00 80 52     mov        w9,#0x2
       100006afc e8 27 0a a9     stp        x8=>_anon.637c5e7b3acc329e3c9842a2b5b4f57b.2,x   = 1000a5992
       100006b00 e9 ff 0b a9     stp        x9,xzr,[sp, #local_cf8]
       100006b04 a8 03 03 d1     sub        x8,x29,#0xc0
       100006b08 e8 5b 00 f9     str        x8,[sp, #local_d10[16]]
       100006b0c 21 06 00 d0     adrp       x1,0x1000cc000
       100006b10 21 80 38 91     add        x1=>_anon.637c5e7b3acc329e3c9842a2b5b4f57b.4,x   = 1000a59c0
       100006b14 e0 83 02 91     add        x0,sp,#0xa0
       100006b18 12 5f 02 94     bl         core::panicking::panic_fmt                       undefined panic_fmt()
                             -- Flow Override: CALL_RETURN (CALL_TERMINATOR)
       100006b1c 40              ??         40h    @
       100006b1d 00              ??         00h
       100006b1e 00              ??         00h
       100006b1f 14              ??         14h
                             LAB_100006b20                                   XREF[1]:     100004fd4(j)  
       100006b20 a0 83 d1 3c     ldur       q0,[x29, #local_f8[0]]
       100006b24 a1 83 d2 3c     ldur       q1,[x29, #local_e8[0]]
       100006b28 a8 03 04 d1     sub        x8,x29,#0x100
       100006b2c 00 05 03 ad     stp        q0,q1,[x8, #local_b0[0]]
       100006b30 a8 83 53 f8     ldur       x8,[x29, #local_d8]
       100006b34 a8 03 18 f8     stur       x8,[x29, #local_90[0]]
       100006b38 e8 e3 01 91     add        x8,sp,#0x78
       100006b3c 69 00 00 90     adrp       x9,0x100012000
       100006b40 29 11 35 91     add        x9,x9,#0xd44
       100006b44 a8 27 34 a9     stp        x8,x9=>_<>::fmt,[x29, #local_d0[0]]
       100006b48 68 02 00 d0     adrp       x8,0x100054000
       100006b4c 08 c1 25 91     add        x8,x8,#0x970
       100006b50 a9 83 02 d1     sub        x9,x29,#0xa0
       100006b54 a9 23 35 a9     stp        x9,x8=>_<>::fmt,[x29, #local_d0[16]]
       100006b58 28 06 00 d0     adrp       x8,0x1000cc000
       100006b5c 08 01 38 91     add        x8,x8,#0xe00
       100006b60 49 00 80 52     mov        w9,#0x2
       100006b64 e8 27 0a a9     stp        x8=>_anon.637c5e7b3acc329e3c9842a2b5b4f57b.2,x   = 1000a5992
       100006b68 e9 ff 0b a9     stp        x9,xzr,[sp, #local_cf8]
       100006b6c a8 03 03 d1     sub        x8,x29,#0xc0
       100006b70 e8 5b 00 f9     str        x8,[sp, #local_d10[16]]
       100006b74 21 06 00 d0     adrp       x1,0x1000cc000
       100006b78 21 80 38 91     add        x1=>_anon.637c5e7b3acc329e3c9842a2b5b4f57b.4,x   = 1000a59c0
       100006b7c e0 83 02 91     add        x0,sp,#0xa0
       100006b80 f8 5e 02 94     bl         core::panicking::panic_fmt                       undefined panic_fmt()
                             -- Flow Override: CALL_RETURN (CALL_TERMINATOR)
       100006b84 26              ??         26h    &
       100006b85 00              ??         00h
       100006b86 00              ??         00h
       100006b87 14              ??         14h
                             LAB_100006b88                                   XREF[1]:     10000504c(j)  
       100006b88 a0 83 d1 3c     ldur       q0,[x29, #local_f8[0]]
       100006b8c a1 83 d2 3c     ldur       q1,[x29, #local_e8[0]]
       100006b90 a8 03 04 d1     sub        x8,x29,#0x100
       100006b94 00 05 03 ad     stp        q0,q1,[x8, #local_b0[0]]
       100006b98 a8 83 53 f8     ldur       x8,[x29, #local_d8]
       100006b9c a8 03 18 f8     stur       x8,[x29, #local_90[0]]
       100006ba0 e8 e3 01 91     add        x8,sp,#0x78
       100006ba4 69 00 00 90     adrp       x9,0x100012000
       100006ba8 29 11 35 91     add        x9,x9,#0xd44
       100006bac a8 27 34 a9     stp        x8,x9=>_<>::fmt,[x29, #local_d0[0]]
       100006bb0 68 02 00 d0     adrp       x8,0x100054000
       100006bb4 08 c1 25 91     add        x8,x8,#0x970
       100006bb8 a9 83 02 d1     sub        x9,x29,#0xa0
       100006bbc a9 23 35 a9     stp        x9,x8=>_<>::fmt,[x29, #local_d0[16]]
       100006bc0 28 06 00 d0     adrp       x8,0x1000cc000
       100006bc4 08 01 38 91     add        x8,x8,#0xe00
       100006bc8 49 00 80 52     mov        w9,#0x2
       100006bcc e8 27 0a a9     stp        x8=>_anon.637c5e7b3acc329e3c9842a2b5b4f57b.2,x   = 1000a5992
       100006bd0 e9 ff 0b a9     stp        x9,xzr,[sp, #local_cf8]
       100006bd4 a8 03 03 d1     sub        x8,x29,#0xc0
       100006bd8 e8 5b 00 f9     str        x8,[sp, #local_d10[16]]
       100006bdc 21 06 00 d0     adrp       x1,0x1000cc000
       100006be0 21 80 38 91     add        x1=>_anon.637c5e7b3acc329e3c9842a2b5b4f57b.4,x   = 1000a59c0
       100006be4 e0 83 02 91     add        x0,sp,#0xa0
       100006be8 de 5e 02 94     bl         core::panicking::panic_fmt                       undefined panic_fmt()
                             -- Flow Override: CALL_RETURN (CALL_TERMINATOR)
       100006bec 0c              ??         0Ch
       100006bed 00              ??         00h
       100006bee 00              ??         00h
       100006bef 14              ??         14h
                             LAB_100006bf0                                   XREF[1]:     100005768(j)  
       100006bf0 22 06 00 d0     adrp       x2,0x1000cc000
       100006bf4 42 20 07 91     add        x2=>PTR__anon.0f8953bd31c1efec3f27f9bbcadb1315   = 1000a4cf4
       100006bf8 20 00 80 52     mov        w0,#0x1
       100006bfc 01 0c 80 52     mov        w1,#0x60
       100006c00 95 5e 02 94     bl         alloc::raw_vec::handle_error                     undefined handle_error()
                             -- Flow Override: CALL_RETURN (CALL_TERMINATOR)
       100006c04 06              ??         06h
       100006c05 00              ??         00h
       100006c06 00              ??         00h
       100006c07 14              ??         14h
                             LAB_100006c08                                   XREF[1]:     100005e6c(j)  
       100006c08 22 06 00 d0     adrp       x2,0x1000cc000
       100006c0c 42 20 07 91     add        x2=>PTR__anon.0f8953bd31c1efec3f27f9bbcadb1315   = 1000a4cf4
       100006c10 20 00 80 52     mov        w0,#0x1
       100006c14 01 0c 80 52     mov        w1,#0x60
       100006c18 8f 5e 02 94     bl         alloc::raw_vec::handle_error                     undefined handle_error()
                             -- Flow Override: CALL_RETURN (CALL_TERMINATOR)
                             LAB_100006c1c                                   XREF[1]:     100006a4c(j)  
       100006c1c 20 00 20 d4     brk        #0x1
       100006c20 02              ??         02h
       100006c21 00              ??         00h
       100006c22 00              ??         00h
       100006c23 14              ??         14h
       100006c24 01              ??         01h
       100006c25 00              ??         00h
       100006c26 00              ??         00h
       100006c27 14              ??         14h
       100006c28 e0              ??         E0h
       100006c29 07              ??         07h
       100006c2a 00              ??         00h
       100006c2b f9              ??         F9h
       100006c2c e1              ??         E1h
       100006c2d 83              ??         83h
       100006c2e 42              ??         42h    B
       100006c2f f9              ??         F9h
       100006c30 c1              ??         C1h
       100006c31 08              ??         08h
       100006c32 00              ??         00h
       100006c33 b4              ??         B4h
       100006c34 e0              ??         E0h
       100006c35 87              ??         87h
       100006c36 42              ??         42h    B
       100006c37 f9              ??         F9h
       100006c38 0c              ??         0Ch
       100006c39 00              ??         00h
       100006c3a 00              ??         00h
       100006c3b 14              ??         14h
       100006c3c e0              ??         E0h
       100006c3d 07              ??         07h
       100006c3e 00              ??         00h
       100006c3f f9              ??         F9h
       100006c40 a1              ??         A1h
       100006c41 03              ??         03h
       100006c42 56              ??         56h    V
       100006c43 f8              ??         F8h
       100006c44 c1              ??         C1h
       100006c45 00              ??         00h
       100006c46 00              ??         00h
       100006c47 b4              ??         B4h
       100006c48 a0              ??         A0h
       100006c49 83              ??         83h
       100006c4a 56              ??         56h    V
       100006c4b f8              ??         F8h
       100006c4c 22              ??         22h    "
       100006c4d 00              ??         00h
       100006c4e 80              ??         80h
       100006c4f 52              ??         52h    R
       100006c50 15              ??         15h
       100006c51 3f              ??         3Fh    ?
       100006c52 00              ??         00h
       100006c53 94              ??         94h
       100006c54 02              ??         02h
       100006c55 00              ??         00h
       100006c56 00              ??         00h
       100006c57 14              ??         14h
       100006c58 e0              ??         E0h
       100006c59 07              ??         07h
       100006c5a 00              ??         00h
       100006c5b f9              ??         F9h
       100006c5c a1              ??         A1h
       100006c5d 03              ??         03h
       100006c5e 50              ??         50h    P
       100006c5f f8              ??         F8h
       100006c60 41              ??         41h    A
       100006c61 07              ??         07h
       100006c62 00              ??         00h
       100006c63 b4              ??         B4h
       100006c64 a0              ??         A0h
       100006c65 83              ??         83h
       100006c66 50              ??         50h    P
       100006c67 f8              ??         F8h
       100006c68 22              ??         22h    "
       100006c69 00              ??         00h
       100006c6a 80              ??         80h
       100006c6b 52              ??         52h    R
       100006c6c 0e              ??         0Eh
       100006c6d 3f              ??         3Fh    ?
       100006c6e 00              ??         00h
       100006c6f 94              ??         94h
       100006c70 36              ??         36h    6
       100006c71 00              ??         00h
       100006c72 00              ??         00h
       100006c73 14              ??         14h
       100006c74 e0              ??         E0h
       100006c75 07              ??         07h
       100006c76 00              ??         00h
       100006c77 f9              ??         F9h
       100006c78 77              ??         77h    w
       100006c79 0d              ??         0Dh
       100006c7a 00              ??         00h
       100006c7b b4              ??         B4h
       100006c7c e0              ??         E0h
       100006c7d 03              ??         03h
       100006c7e 19              ??         19h
       100006c7f aa              ??         AAh
       100006c80 e1              ??         E1h
       100006c81 03              ??         03h
       100006c82 17              ??         17h
       100006c83 aa              ??         AAh
       100006c84 22              ??         22h    "
       100006c85 00              ??         00h
       100006c86 80              ??         80h
       100006c87 52              ??         52h    R
       100006c88 07              ??         07h
       100006c89 3f              ??         3Fh    ?
       100006c8a 00              ??         00h
       100006c8b 94              ??         94h
       100006c8c 66              ??         66h    f
       100006c8d 00              ??         00h
       100006c8e 00              ??         00h
       100006c8f 14              ??         14h
       100006c90 e0              ??         E0h
       100006c91 07              ??         07h
       100006c92 00              ??         00h
       100006c93 f9              ??         F9h
       100006c94 b4              ??         B4h
       100006c95 11              ??         11h
       100006c96 00              ??         00h
       100006c97 b4              ??         B4h
       100006c98 e0              ??         E0h
       100006c99 03              ??         03h
       100006c9a 19              ??         19h
       100006c9b aa              ??         AAh
       100006c9c e1              ??         E1h
       100006c9d 03              ??         03h
       100006c9e 14              ??         14h
       100006c9f aa              ??         AAh
       100006ca0 22              ??         22h    "
       100006ca1 00              ??         00h
       100006ca2 80              ??         80h
       100006ca3 52              ??         52h    R
       100006ca4 00              ??         00h
       100006ca5 3f              ??         3Fh    ?
       100006ca6 00              ??         00h
       100006ca7 94              ??         94h
       100006ca8 88              ??         88h
       100006ca9 00              ??         00h
       100006caa 00              ??         00h
       100006cab 14              ??         14h
       100006cac e0              ??         E0h
       100006cad 07              ??         07h
       100006cae 00              ??         00h
       100006caf f9              ??         F9h
       100006cb0 a1              ??         A1h
       100006cb1 03              ??         03h
       100006cb2 56              ??         56h    V
       100006cb3 f8              ??         F8h
       100006cb4 28              ??         28h    (
       100006cb5 00              ??         00h
       100006cb6 41              ??         41h    A
       100006cb7 b2              ??         B2h
       100006cb8 09              ??         09h
       100006cb9 00              ??         00h
       100006cba f0              ??         F0h
       100006cbb d2              ??         D2h
       100006cbc 1f              ??         1Fh
       100006cbd 01              ??         01h
       100006cbe 09              ??         09h
       100006cbf eb              ??         EBh
       100006cc0 c0              ??         C0h
       100006cc1 00              ??         00h
       100006cc2 00              ??         00h
       100006cc3 54              ??         54h    T
       100006cc4 a0              ??         A0h
       100006cc5 83              ??         83h
       100006cc6 56              ??         56h    V
       100006cc7 f8              ??         F8h
       100006cc8 22              ??         22h    "
       100006cc9 00              ??         00h
       100006cca 80              ??         80h
       100006ccb 52              ??         52h    R
       100006ccc f6              ??         F6h
       100006ccd 3e              ??         3Eh    >
       100006cce 00              ??         00h
       100006ccf 94              ??         94h
       100006cd0 02              ??         02h
       100006cd1 00              ??         00h
       100006cd2 00              ??         00h
       100006cd3 14              ??         14h
       100006cd4 e0              ??         E0h
       100006cd5 07              ??         07h
       100006cd6 00              ??         00h
       100006cd7 f9              ??         F9h
       100006cd8 f8              ??         F8h
       100006cd9 1a              ??         1Ah
       100006cda 00              ??         00h
       100006cdb b4              ??         B4h
       100006cdc e0              ??         E0h
       100006cdd 03              ??         03h
       100006cde 1b              ??         1Bh
       100006cdf aa              ??         AAh
       100006ce0 e1              ??         E1h
       100006ce1 03              ??         03h
       100006ce2 18              ??         18h
       100006ce3 aa              ??         AAh
       100006ce4 26              ??         26h    &
       100006ce5 00              ??         00h
       100006ce6 00              ??         00h
       100006ce7 14              ??         14h
       100006ce8 d2              ??         D2h
       100006ce9 00              ??         00h
       100006cea 00              ??         00h
       100006ceb 14              ??         14h
       100006cec e0              ??         E0h
       100006ced 07              ??         07h
       100006cee 00              ??         00h
       100006cef f9              ??         F9h
       100006cf0 a0              ??         A0h
       100006cf1 03              ??         03h
       100006cf2 56              ??         56h    V
       100006cf3 b8              ??         B8h
       100006cf4 fc              ??         FCh
       100006cf5 5f              ??         5Fh    _
       100006cf6 02              ??         02h
       100006cf7 94              ??         94h
       100006cf8 14              ??         14h
       100006cf9 00              ??         00h
       100006cfa 00              ??         00h
       100006cfb 14              ??         14h
       100006cfc cd              ??         CDh
       100006cfd 00              ??         00h
       100006cfe 00              ??         00h
       100006cff 14              ??         14h
       100006d00 e0              ??         E0h
       100006d01 07              ??         07h
       100006d02 00              ??         00h
       100006d03 f9              ??         F9h
       100006d04 e0              ??         E0h
       100006d05 03              ??         03h
       100006d06 14              ??         14h
       100006d07 aa              ??         AAh
       100006d08 01              ??         01h
       100006d09 0c              ??         0Ch
       100006d0a 80              ??         80h
       100006d0b 52              ??         52h    R
       100006d0c 1c              ??         1Ch
       100006d0d 00              ??         00h
       100006d0e 00              ??         00h
       100006d0f 14              ??         14h
       100006d10 e0              ??         E0h
       100006d11 07              ??         07h
       100006d12 00              ??         00h
       100006d13 f9              ??         F9h
       100006d14 e8              ??         E8h
       100006d15 63              ??         63h    c
       100006d16 44              ??         44h    D
       100006d17 f9              ??         F9h
       100006d18 09              ??         09h
       100006d19 01              ??         01h
       100006d1a 40              ??         40h    @
       100006d1b f9              ??         F9h
       100006d1c 29              ??         29h    )
       100006d1d 05              ??         05h
       100006d1e 00              ??         00h
       100006d1f f1              ??         F1h
       100006d20 09              ??         09h
       100006d21 01              ??         01h
       100006d22 00              ??         00h
       100006d23 f9              ??         F9h
       100006d24 61              ??         61h    a
       100006d25 0d              ??         0Dh
       100006d26 00              ??         00h
       100006d27 54              ??         54h    T
       100006d28 e0              ??         E0h
       100006d29 03              ??         03h
       100006d2a 23              ??         23h    #
       100006d2b 91              ??         91h
       100006d2c b5              ??         B5h
       100006d2d 32              ??         32h    2
       100006d2e 00              ??         00h
       100006d2f 94              ??         94h
       100006d30 68              ??         68h    h
       100006d31 00              ??         00h
       100006d32 00              ??         00h
       100006d33 14              ??         14h
       100006d34 e0              ??         E0h
       100006d35 07              ??         07h
       100006d36 00              ??         00h
       100006d37 f9              ??         F9h
       100006d38 e0              ??         E0h
       100006d39 03              ??         03h
       100006d3a 14              ??         14h
       100006d3b aa              ??         AAh
       100006d3c 01              ??         01h
       100006d3d 0c              ??         0Ch
       100006d3e 80              ??         80h
       100006d3f 52              ??         52h    R
       100006d40 05              ??         05h
       100006d41 00              ??         00h
       100006d42 00              ??         00h
       100006d43 14              ??         14h
       100006d44 e0              ??         E0h
       100006d45 07              ??         07h
       100006d46 00              ??         00h
       100006d47 f9              ??         F9h
       100006d48 d8              ??         D8h
       100006d49 09              ??         09h
       100006d4a 00              ??         00h
       100006d4b b4              ??         B4h
       100006d4c e0              ??         E0h
       100006d4d 37              ??         37h    7
       100006d4e 40              ??         40h    @
       100006d4f f9              ??         F9h
       100006d50 e1              ??         E1h
       100006d51 03              ??         03h
       100006d52 18              ??         18h
       100006d53 aa              ??         AAh
       100006d54 22              ??         22h    "
       100006d55 00              ??         00h
       100006d56 80              ??         80h
       100006d57 52              ??         52h    R
       100006d58 d3              ??         D3h
       100006d59 3e              ??         3Eh    >
       100006d5a 00              ??         00h
       100006d5b 94              ??         94h
       100006d5c 49              ??         49h    I
       100006d5d 00              ??         00h
       100006d5e 00              ??         00h
       100006d5f 14              ??         14h
       100006d60 47              ??         47h    G
       100006d61 00              ??         00h
       100006d62 00              ??         00h
       100006d63 14              ??         14h
       100006d64 02              ??         02h
       100006d65 00              ??         00h
       100006d66 00              ??         00h
       100006d67 14              ??         14h
       100006d68 01              ??         01h
       100006d69 00              ??         00h
       100006d6a 00              ??         00h
       100006d6b 14              ??         14h
       100006d6c e0              ??         E0h
       100006d6d 07              ??         07h
       100006d6e 00              ??         00h
       100006d6f f9              ??         F9h
       100006d70 a1              ??         A1h
       100006d71 03              ??         03h
       100006d72 56              ??         56h    V
       100006d73 f8              ??         F8h
       100006d74 01              ??         01h
       100006d75 16              ??         16h
       100006d76 00              ??         00h
       100006d77 b4              ??         B4h
       100006d78 a0              ??         A0h
       100006d79 83              ??         83h
       100006d7a 56              ??         56h    V
       100006d7b f8              ??         F8h
       100006d7c 22              ??         22h    "
       100006d7d 00              ??         00h
       100006d7e 80              ??         80h
       100006d7f 52              ??         52h    R
       100006d80 c9              ??         C9h
       100006d81 3e              ??         3Eh    >
       100006d82 00              ??         00h
       100006d83 94              ??         94h
       100006d84 ac              ??         ACh
       100006d85 00              ??         00h
       100006d86 00              ??         00h
       100006d87 14              ??         14h
       100006d88 e0              ??         E0h
       100006d89 07              ??         07h
       100006d8a 00              ??         00h
       100006d8b f9              ??         F9h
       100006d8c a1              ??         A1h
       100006d8d 83              ??         83h
       100006d8e 51              ??         51h    Q
       100006d8f f8              ??         F8h
       100006d90 28              ??         28h    (
       100006d91 00              ??         00h
       100006d92 41              ??         41h    A
       100006d93 b2              ??         B2h
       100006d94 09              ??         09h
       100006d95 00              ??         00h
       100006d96 f0              ??         F0h
       100006d97 d2              ??         D2h
       100006d98 1f              ??         1Fh
       100006d99 01              ??         01h
       100006d9a 09              ??         09h
       100006d9b eb              ??         EBh
       100006d9c 40              ??         40h    @
       100006d9d 02              ??         02h
       100006d9e 00              ??         00h
       100006d9f 54              ??         54h    T
       100006da0 a0              ??         A0h
       100006da1 03              ??         03h
       100006da2 52              ??         52h    R
       100006da3 f8              ??         F8h
       100006da4 22              ??         22h    "
       100006da5 00              ??         00h
       100006da6 80              ??         80h
       100006da7 52              ??         52h    R
       100006da8 bf              ??         BFh
       100006da9 3e              ??         3Eh    >
       100006daa 00              ??         00h
       100006dab 94              ??         94h
       100006dac 0e              ??         0Eh
       100006dad 00              ??         00h
       100006dae 00              ??         00h
       100006daf 14              ??         14h
       100006db0 e0              ??         E0h
       100006db1 07              ??         07h
       100006db2 00              ??         00h
       100006db3 f9              ??         F9h
       100006db4 a6              ??         A6h
       100006db5 00              ??         00h
       100006db6 00              ??         00h
       100006db7 14              ??         14h
       100006db8 e0              ??         E0h
       100006db9 07              ??         07h
       100006dba 00              ??         00h
       100006dbb f9              ??         F9h
       100006dbc e8              ??         E8h
       100006dbd 63              ??         63h    c
       100006dbe 44              ??         44h    D
       100006dbf f9              ??         F9h
       100006dc0 09              ??         09h
       100006dc1 01              ??         01h
       100006dc2 40              ??         40h    @
       100006dc3 f9              ??         F9h
       100006dc4 29              ??         29h    )
       100006dc5 05              ??         05h
       100006dc6 00              ??         00h
       100006dc7 f1              ??         F1h
       100006dc8 09              ??         09h
       100006dc9 01              ??         01h
       100006dca 00              ??         00h
       100006dcb f9              ??         F9h
       100006dcc 21              ??         21h    !
       100006dcd 08              ??         08h
       100006dce 00              ??         00h
       100006dcf 54              ??         54h    T
       100006dd0 e0              ??         E0h
       100006dd1 03              ??         03h
       100006dd2 23              ??         23h    #
       100006dd3 91              ??         91h
       100006dd4 8b              ??         8Bh
       100006dd5 32              ??         32h    2
       100006dd6 00              ??         00h
       100006dd7 94              ??         94h
       100006dd8 3e              ??         3Eh    >
       100006dd9 00              ??         00h
       100006dda 00              ??         00h
       100006ddb 14              ??         14h
       100006ddc bd              ??         BDh
       100006ddd 5e              ??         5Eh    ^
       100006dde 02              ??         02h
       100006ddf 94              ??         94h
       100006de0 e0              ??         E0h
       100006de1 07              ??         07h
       100006de2 00              ??         00h
       100006de3 f9              ??         F9h
       100006de4 74              ??         74h    t
       100006de5 00              ??         00h
       100006de6 00              ??         00h
       100006de7 b5              ??         B5h
       100006de8 f6              ??         F6h
       100006de9 00              ??         00h
       100006dea 00              ??         00h
       100006deb b5              ??         B5h
       100006dec 30              ??         30h    0
       100006ded 00              ??         00h
       100006dee 00              ??         00h
       100006def 14              ??         14h
       100006df0 e0              ??         E0h
       100006df1 2b              ??         2Bh    +
       100006df2 40              ??         40h    @
       100006df3 f9              ??         F9h
       100006df4 e1              ??         E1h
       100006df5 03              ??         03h
       100006df6 14              ??         14h
       100006df7 aa              ??         AAh
       100006df8 22              ??         22h    "
       100006df9 00              ??         00h
       100006dfa 80              ??         80h
       100006dfb 52              ??         52h    R
       100006dfc aa              ??         AAh
       100006dfd 3e              ??         3Eh    >
       100006dfe 00              ??         00h
       100006dff 94              ??         94h
       100006e00 76              ??         76h    v
       100006e01 05              ??         05h
       100006e02 00              ??         00h
       100006e03 b4              ??         B4h
       100006e04 e0              ??         E0h
       100006e05 3b              ??         3Bh    ;
       100006e06 40              ??         40h    @
       100006e07 f9              ??         F9h
       100006e08 e1              ??         E1h
       100006e09 03              ??         03h
       100006e0a 16              ??         16h
       100006e0b aa              ??         AAh
       100006e0c 22              ??         22h    "
       100006e0d 00              ??         00h
       100006e0e 80              ??         80h
       100006e0f 52              ??         52h    R
       100006e10 a5              ??         A5h
       100006e11 3e              ??         3Eh    >
       100006e12 00              ??         00h
       100006e13 94              ??         94h
       100006e14 b5              ??         B5h
       100006e15 0f              ??         0Fh
       100006e16 00              ??         00h
       100006e17 b5              ??         B5h
       100006e18 bf              ??         BFh
       100006e19 00              ??         00h
       100006e1a 00              ??         00h
       100006e1b 14              ??         14h
       100006e1c f4              ??         F4h
       100006e1d 0f              ??         0Fh
       100006e1e 00              ??         00h
       100006e1f f9              ??         F9h
       100006e20 e0              ??         E0h
       100006e21 07              ??         07h
       100006e22 00              ??         00h
       100006e23 f9              ??         F9h
       100006e24 e8              ??         E8h
       100006e25 2f              ??         2Fh    /
       100006e26 40              ??         40h    @
       100006e27 f9              ??         F9h
       100006e28 68              ??         68h    h
       100006e29 00              ??         00h
       100006e2a 00              ??         00h
       100006e2b b5              ??         B5h
       100006e2c ff              ??         FFh
       100006e2d 23              ??         23h    #
       100006e2e 00              ??         00h
       100006e2f f9              ??         F9h
       100006e30 31              ??         31h    1
       100006e31 00              ??         00h
       100006e32 00              ??         00h
       100006e33 14              ??         14h
       100006e34 e0              ??         E0h
       100006e35 13              ??         13h
       100006e36 40              ??         40h    @
       100006e37 f9              ??         F9h
       100006e38 e1              ??         E1h
       100006e39 2f              ??         2Fh    /
       100006e3a 40              ??         40h    @
       100006e3b f9              ??         F9h
       100006e3c 22              ??         22h    "
       100006e3d 00              ??         00h
       100006e3e 80              ??         80h
       100006e3f 52              ??         52h    R
       100006e40 99              ??         99h
       100006e41 3e              ??         3Eh    >
       100006e42 00              ??         00h
       100006e43 94              ??         94h
       100006e44 ff              ??         FFh
       100006e45 23              ??         23h    #
       100006e46 00              ??         00h
       100006e47 f9              ??         F9h
       100006e48 2b              ??         2Bh    +
       100006e49 00              ??         00h
       100006e4a 00              ??         00h
       100006e4b 14              ??         14h
       100006e4c 03              ??         03h
       100006e4d 00              ??         00h
       100006e4e 00              ??         00h
       100006e4f 14              ??         14h
       100006e50 02              ??         02h
       100006e51 00              ??         00h
       100006e52 00              ??         00h
       100006e53 14              ??         14h
       100006e54 01              ??         01h
       100006e55 00              ??         00h
       100006e56 00              ??         00h
       100006e57 14              ??         14h
       100006e58 e0              ??         E0h
       100006e59 07              ??         07h
       100006e5a 00              ??         00h
       100006e5b f9              ??         F9h
       100006e5c e1              ??         E1h
       100006e5d 83              ??         83h
       100006e5e 42              ??         42h    B
       100006e5f f9              ??         F9h
       100006e60 61              ??         61h    a
       100006e61 11              ??         11h
       100006e62 00              ??         00h
       100006e63 b4              ??         B4h
       100006e64 e0              ??         E0h
       100006e65 87              ??         87h
       100006e66 42              ??         42h    B
       100006e67 f9              ??         F9h
       100006e68 22              ??         22h    "
       100006e69 00              ??         00h
       100006e6a 80              ??         80h
       100006e6b 52              ??         52h    R
       100006e6c 8e              ??         8Eh
       100006e6d 3e              ??         3Eh    >
       100006e6e 00              ??         00h
       100006e6f 94              ??         94h
       100006e70 87              ??         87h
       100006e71 00              ??         00h
       100006e72 00              ??         00h
       100006e73 14              ??         14h
       100006e74 e0              ??         E0h
       100006e75 07              ??         07h
       100006e76 00              ??         00h
       100006e77 f9              ??         F9h
       100006e78 7b              ??         7Bh    {
       100006e79 00              ??         00h
       100006e7a 00              ??         00h
       100006e7b 14              ??         14h
       100006e7c e0              ??         E0h
       100006e7d 07              ??         07h
       100006e7e 00              ??         00h
       100006e7f f9              ??         F9h
       100006e80 b7              ??         B7h
       100006e81 03              ??         03h
       100006e82 00              ??         00h
       100006e83 b4              ??         B4h
       100006e84 e1              ??         E1h
       100006e85 f6              ??         F6h
       100006e86 7e              ??         7Eh    ~
       100006e87 d3              ??         D3h
       100006e88 e0              ??         E0h
       100006e89 0b              ??         0Bh
       100006e8a 40              ??         40h    @
       100006e8b f9              ??         F9h
       100006e8c 82              ??         82h
       100006e8d 00              ??         00h
       100006e8e 80              ??         80h
       100006e8f 52              ??         52h    R
       100006e90 18              ??         18h
       100006e91 00              ??         00h
       100006e92 00              ??         00h
       100006e93 14              ??         14h
       100006e94 e0              ??         E0h
       100006e95 07              ??         07h
       100006e96 00              ??         00h
       100006e97 f9              ??         F9h
       100006e98 b6              ??         B6h
       100006e99 00              ??         00h
       100006e9a 00              ??         00h
       100006e9b b4              ??         B4h
       100006e9c e0              ??         E0h
       100006e9d 3b              ??         3Bh    ;
       100006e9e 40              ??         40h    @
       100006e9f f9              ??         F9h
       100006ea0 e1              ??         E1h
       100006ea1 03              ??         03h
       100006ea2 16              ??         16h
       100006ea3 aa              ??         AAh
       100006ea4 22              ??         22h    "
       100006ea5 00              ??         00h
       100006ea6 80              ??         80h
       100006ea7 52              ??         52h    R
       100006ea8 7f              ??         7Fh    
       100006ea9 3e              ??         3Eh    >
       100006eaa 00              ??         00h
       100006eab 94              ??         94h
       100006eac f5              ??         F5h
       100006ead 0a              ??         0Ah
       100006eae 00              ??         00h
       100006eaf b5              ??         B5h
       100006eb0 99              ??         99h
       100006eb1 00              ??         00h
       100006eb2 00              ??         00h
       100006eb3 14              ??         14h
       100006eb4 e0              ??         E0h
       100006eb5 07              ??         07h
       100006eb6 00              ??         00h
       100006eb7 f9              ??         F9h
       100006eb8 e8              ??         E8h
       100006eb9 03              ??         03h
       100006eba 14              ??         14h
       100006ebb aa              ??         AAh
       100006ebc 06              ??         06h
       100006ebd 00              ??         00h
       100006ebe 00              ??         00h
       100006ebf 14              ??         14h
       100006ec0 f4              ??         F4h
       100006ec1 0f              ??         0Fh
       100006ec2 00              ??         00h
       100006ec3 f9              ??         F9h
       100006ec4 e0              ??         E0h
       100006ec5 07              ??         07h
       100006ec6 00              ??         00h
       100006ec7 f9              ??         F9h
       100006ec8 e8              ??         E8h
       100006ec9 33              ??         33h    3
       100006eca 40              ??         40h    @
       100006ecb f9              ??         F9h
       100006ecc 88              ??         88h
       100006ecd 00              ??         00h
       100006ece 00              ??         00h
       100006ecf b5              ??         B5h
       100006ed0 28              ??         28h    (
       100006ed1 00              ??         00h
       100006ed2 80              ??         80h
       100006ed3 52              ??         52h    R
       100006ed4 e8              ??         E8h
       100006ed5 23              ??         23h    #
       100006ed6 00              ??         00h
       100006ed7 f9              ??         F9h
       100006ed8 07              ??         07h
       100006ed9 00              ??         00h
       100006eda 00              ??         00h
       100006edb 14              ??         14h
       100006edc 28              ??         28h    (
       100006edd 00              ??         00h
       100006ede 80              ??         80h
       100006edf 52              ??         52h    R
       100006ee0 e8              ??         E8h
       100006ee1 23              ??         23h    #
       100006ee2 00              ??         00h
       100006ee3 f9              ??         F9h
       100006ee4 e0              ??         E0h
       100006ee5 1f              ??         1Fh
       100006ee6 40              ??         40h    @
       100006ee7 f9              ??         F9h
       100006ee8 e1              ??         E1h
       100006ee9 33              ??         33h    3
       100006eea 40              ??         40h    @
       100006eeb f9              ??         F9h
       100006eec 22              ??         22h    "
       100006eed 00              ??         00h
       100006eee 80              ??         80h
       100006eef 52              ??         52h    R
       100006ef0 6d              ??         6Dh    m
       100006ef1 3e              ??         3Eh    >
       100006ef2 00              ??         00h
       100006ef3 94              ??         94h
       100006ef4 e8              ??         E8h
       100006ef5 1b              ??         1Bh
       100006ef6 40              ??         40h    @
       100006ef7 f9              ??         F9h
       100006ef8 e8              ??         E8h
       100006ef9 02              ??         02h
       100006efa 00              ??         00h
       100006efb b4              ??         B4h
       100006efc e0              ??         E0h
       100006efd 03              ??         03h
       100006efe 1a              ??         1Ah
       100006eff aa              ??         AAh
       100006f00 e1              ??         E1h
       100006f01 1b              ??         1Bh
       100006f02 40              ??         40h    @
       100006f03 f9              ??         F9h
       100006f04 22              ??         22h    "
       100006f05 00              ??         00h
       100006f06 80              ??         80h
       100006f07 52              ??         52h    R
       100006f08 67              ??         67h    g
       100006f09 3e              ??         3Eh    >
       100006f0a 00              ??         00h
       100006f0b 94              ??         94h
       100006f0c 12              ??         12h
       100006f0d 00              ??         00h
       100006f0e 00              ??         00h
       100006f0f 14              ??         14h
       100006f10 02              ??         02h
       100006f11 00              ??         00h
       100006f12 00              ??         00h
       100006f13 14              ??         14h
       100006f14 01              ??         01h
       100006f15 00              ??         00h
       100006f16 00              ??         00h
       100006f17 14              ??         14h
       100006f18 e0              ??         E0h
       100006f19 07              ??         07h
       100006f1a 00              ??         00h
       100006f1b f9              ??         F9h
       100006f1c e1              ??         E1h
       100006f1d 53              ??         53h    S
       100006f1e 40              ??         40h    @
       100006f1f f9              ??         F9h
       100006f20 81              ??         81h
       100006f21 0d              ??         0Dh
       100006f22 00              ??         00h
       100006f23 b4              ??         B4h
       100006f24 e0              ??         E0h
       100006f25 57              ??         57h    W
       100006f26 40              ??         40h    @
       100006f27 f9              ??         F9h
       100006f28 22              ??         22h    "
       100006f29 00              ??         00h
       100006f2a 80              ??         80h
       100006f2b 52              ??         52h    R
       100006f2c 5e              ??         5Eh    ^
       100006f2d 3e              ??         3Eh    >
       100006f2e 00              ??         00h
       100006f2f 94              ??         94h
       100006f30 68              ??         68h    h
       100006f31 00              ??         00h
       100006f32 00              ??         00h
       100006f33 14              ??         14h
       100006f34 e0              ??         E0h
       100006f35 07              ??         07h
       100006f36 00              ??         00h
       100006f37 f9              ??         F9h
       100006f38 50              ??         50h    P
       100006f39 00              ??         00h
       100006f3a 00              ??         00h
       100006f3b 14              ??         14h
       100006f3c f4              ??         F4h
       100006f3d 0f              ??         0Fh
       100006f3e 00              ??         00h
       100006f3f f9              ??         F9h
       100006f40 e0              ??         E0h
       100006f41 07              ??         07h
       100006f42 00              ??         00h
       100006f43 f9              ??         F9h
       100006f44 28              ??         28h    (
       100006f45 00              ??         00h
       100006f46 80              ??         80h
       100006f47 52              ??         52h    R
       100006f48 e8              ??         E8h
       100006f49 23              ??         23h    #
       100006f4a 00              ??         00h
       100006f4b f9              ??         F9h
       100006f4c 28              ??         28h    (
       100006f4d 00              ??         00h
       100006f4e 80              ??         80h
       100006f4f 52              ??         52h    R
       100006f50 e8              ??         E8h
       100006f51 2f              ??         2Fh    /
       100006f52 00              ??         00h
       100006f53 b9              ??         B9h
       100006f54 e8              ??         E8h
       100006f55 2f              ??         2Fh    /
       100006f56 40              ??         40h    @
       100006f57 f9              ??         F9h
       100006f58 1f              ??         1Fh
       100006f59 f9              ??         F9h
       100006f5a 40              ??         40h    @
       100006f5b f2              ??         F2h
       100006f5c e0              ??         E0h
       100006f5d 00              ??         00h
       100006f5e 00              ??         00h
       100006f5f 54              ??         54h    T
       100006f60 e8              ??         E8h
       100006f61 23              ??         23h    #
       100006f62 40              ??         40h    @
       100006f63 f9              ??         F9h
       100006f64 a8              ??         A8h
       100006f65 00              ??         00h
       100006f66 00              ??         00h
       100006f67 36              ??         36h    6
       100006f68 e0              ??         E0h
       100006f69 13              ??         13h
       100006f6a 40              ??         40h    @
       100006f6b f9              ??         F9h
       100006f6c e1              ??         E1h
       100006f6d 2f              ??         2Fh    /
       100006f6e 40              ??         40h    @
       100006f6f f9              ??         F9h
       100006f70 22              ??         22h    "
       100006f71 00              ??         00h
       100006f72 80              ??         80h
       100006f73 52              ??         52h    R
       100006f74 4c              ??         4Ch    L
       100006f75 3e              ??         3Eh    >
       100006f76 00              ??         00h
       100006f77 94              ??         94h
       100006f78 e8              ??         E8h
       100006f79 33              ??         33h    3
       100006f7a 40              ??         40h    @
       100006f7b f9              ??         F9h
       100006f7c 1f              ??         1Fh
       100006f7d f9              ??         F9h
       100006f7e 40              ??         40h    @
       100006f7f f2              ??         F2h
       100006f80 e8              ??         E8h
       100006f81 2f              ??         2Fh    /
       100006f82 40              ??         40h    @
       100006f83 b9              ??         B9h
       100006f84 e8              ??         E8h
       100006f85 03              ??         03h
       100006f86 88              ??         88h
       100006f87 1a              ??         1Ah
       100006f88 48              ??         48h    H
       100006f89 02              ??         02h
       100006f8a 00              ??         00h
       100006f8b 36              ??         36h    6
       100006f8c e0              ??         E0h
       100006f8d 1f              ??         1Fh
       100006f8e 40              ??         40h    @
       100006f8f f9              ??         F9h
       100006f90 e1              ??         E1h
       100006f91 33              ??         33h    3
       100006f92 40              ??         40h    @
       100006f93 f9              ??         F9h
       100006f94 22              ??         22h    "
       100006f95 00              ??         00h
       100006f96 80              ??         80h
       100006f97 52              ??         52h    R
       100006f98 43              ??         43h    C
       100006f99 3e              ??         3Eh    >
       100006f9a 00              ??         00h
       100006f9b 94              ??         94h
       100006f9c e8              ??         E8h
       100006f9d 0f              ??         0Fh
       100006f9e 40              ??         40h    @
       100006f9f f9              ??         F9h
       100006fa0 c8              ??         C8h
       100006fa1 01              ??         01h
       100006fa2 00              ??         00h
       100006fa3 b4              ??         B4h
       100006fa4 e0              ??         E0h
       100006fa5 2b              ??         2Bh    +
       100006fa6 40              ??         40h    @
       100006fa7 f9              ??         F9h
       100006fa8 e1              ??         E1h
       100006fa9 0f              ??         0Fh
       100006faa 40              ??         40h    @
       100006fab f9              ??         F9h
       100006fac 22              ??         22h    "
       100006fad 00              ??         00h
       100006fae 80              ??         80h
       100006faf 52              ??         52h    R
       100006fb0 3d              ??         3Dh    =
       100006fb1 3e              ??         3Eh    >
       100006fb2 00              ??         00h
       100006fb3 94              ??         94h
       100006fb4 56              ??         56h    V
       100006fb5 01              ??         01h
       100006fb6 00              ??         00h
       100006fb7 b4              ??         B4h
       100006fb8 e0              ??         E0h
       100006fb9 3b              ??         3Bh    ;
       100006fba 40              ??         40h    @
       100006fbb f9              ??         F9h
       100006fbc e1              ??         E1h
       100006fbd 03              ??         03h
       100006fbe 16              ??         16h
       100006fbf aa              ??         AAh
       100006fc0 22              ??         22h    "
       100006fc1 00              ??         00h
       100006fc2 80              ??         80h
       100006fc3 52              ??         52h    R
       100006fc4 38              ??         38h    8
       100006fc5 3e              ??         3Eh    >
       100006fc6 00              ??         00h
       100006fc7 94              ??         94h
       100006fc8 95              ??         95h
       100006fc9 0b              ??         0Bh
       100006fca 00              ??         00h
       100006fcb b4              ??         B4h
       100006fcc 05              ??         05h
       100006fcd 00              ??         00h
       100006fce 00              ??         00h
       100006fcf 14              ??         14h
       100006fd0 e8              ??         E8h
       100006fd1 0f              ??         0Fh
       100006fd2 40              ??         40h    @
       100006fd3 f9              ??         F9h
       100006fd4 88              ??         88h
       100006fd5 fe              ??         FEh
       100006fd6 ff              ??         FFh
       100006fd7 b5              ??         B5h
       100006fd8 16              ??         16h
       100006fd9 ff              ??         FFh
       100006fda ff              ??         FFh
       100006fdb b5              ??         B5h
       100006fdc f5              ??         F5h
       100006fdd 0a              ??         0Ah
       100006fde 00              ??         00h
       100006fdf b4              ??         B4h
       100006fe0 e0              ??         E0h
       100006fe1 03              ??         03h
       100006fe2 13              ??         13h
       100006fe3 aa              ??         AAh
       100006fe4 e1              ??         E1h
       100006fe5 03              ??         03h
       100006fe6 15              ??         15h
       100006fe7 aa              ??         AAh
       100006fe8 22              ??         22h    "
       100006fe9 00              ??         00h
       100006fea 80              ??         80h
       100006feb 52              ??         52h    R
       100006fec 2e              ??         2Eh    .
       100006fed 3e              ??         3Eh    >
       100006fee 00              ??         00h
       100006fef 94              ??         94h
       100006ff0 e0              ??         E0h
       100006ff1 07              ??         07h
       100006ff2 40              ??         40h    @
       100006ff3 f9              ??         F9h
       100006ff4 18              ??         18h
       100006ff5 5f              ??         5Fh    _
       100006ff6 02              ??         02h
       100006ff7 94              ??         94h
       100006ff8 e0              ??         E0h
       100006ff9 07              ??         07h
       100006ffa 00              ??         00h
       100006ffb f9              ??         F9h
       100006ffc 29              ??         29h    )
       100006ffd 00              ??         00h
       100006ffe 00              ??         00h
       100006fff 14              ??         14h
       100007000 e0              ??         E0h
       100007001 07              ??         07h
       100007002 00              ??         00h
       100007003 f9              ??         F9h
       100007004 95              ??         95h
       100007005 08              ??         08h
       100007006 00              ??         00h
       100007007 b4              ??         B4h
       100007008 e0              ??         E0h
       100007009 23              ??         23h    #
       10000700a 40              ??         40h    @
       10000700b f9              ??         F9h
       10000700c e1              ??         E1h
       10000700d 03              ??         03h
       10000700e 15              ??         15h
       10000700f aa              ??         AAh
       100007010 05              ??         05h
       100007011 00              ??         00h
       100007012 00              ??         00h
       100007013 14              ??         14h
       100007014 e0              ??         E0h
       100007015 07              ??         07h
       100007016 00              ??         00h
       100007017 f9              ??         F9h
       100007018 f3              ??         F3h
       100007019 07              ??         07h
       10000701a 00              ??         00h
       10000701b b4              ??         B4h
       10000701c e0              ??         E0h
       10000701d 03              ??         03h
       10000701e 1c              ??         1Ch
       10000701f aa              ??         AAh
       100007020 e1              ??         E1h
       100007021 03              ??         03h
       100007022 13              ??         13h
       100007023 aa              ??         AAh
       100007024 22              ??         22h    "
       100007025 00              ??         00h
       100007026 80              ??         80h
       100007027 52              ??         52h    R
       100007028 1f              ??         1Fh
       100007029 3e              ??         3Eh    >
       10000702a 00              ??         00h
       10000702b 94              ??         94h
       10000702c 3a              ??         3Ah    :
       10000702d 00              ??         00h
       10000702e 00              ??         00h
       10000702f 14              ??         14h
       100007030 e0              ??         E0h
       100007031 07              ??         07h
       100007032 00              ??         00h
       100007033 f9              ??         F9h
       100007034 e8              ??         E8h
       100007035 23              ??         23h    #
       100007036 40              ??         40h    @
       100007037 f9              ??         F9h
       100007038 a8              ??         A8h
       100007039 00              ??         00h
       10000703a 00              ??         00h
       10000703b b4              ??         B4h
       10000703c e0              ??         E0h
       10000703d a3              ??         A3h
       10000703e 43              ??         43h    C
       10000703f a9              ??         A9h
       100007040 01              ??         01h
       100007041 f5              ??         F5h
       100007042 7e              ??         7Eh    ~
       100007043 d3              ??         D3h
       100007044 82              ??         82h
       100007045 00              ??         00h
       100007046 80              ??         80h
       100007047 52              ??         52h    R
       100007048 17              ??         17h
       100007049 3e              ??         3Eh    >
       10000704a 00              ??         00h
       10000704b 94              ??         94h
       10000704c e8              ??         E8h
       10000704d 2f              ??         2Fh    /
       10000704e 40              ??         40h    @
       10000704f f9              ??         F9h
       100007050 a8              ??         A8h
       100007051 00              ??         00h
       100007052 00              ??         00h
       100007053 b4              ??         B4h
       100007054 e0              ??         E0h
       100007055 27              ??         27h    '
       100007056 40              ??         40h    @
       100007057 f9              ??         F9h
       100007058 e1              ??         E1h
       100007059 2f              ??         2Fh    /
       10000705a 40              ??         40h    @
       10000705b f9              ??         F9h
       10000705c 22              ??         22h    "
       10000705d 00              ??         00h
       10000705e 80              ??         80h
       10000705f 52              ??         52h    R
       100007060 11              ??         11h
       100007061 3e              ??         3Eh    >
       100007062 00              ??         00h
       100007063 94              ??         94h
       100007064 b5              ??         B5h
       100007065 00              ??         00h
       100007066 00              ??         00h
       100007067 b4              ??         B4h
       100007068 e0              ??         E0h
       100007069 33              ??         33h    3
       10000706a 40              ??         40h    @
       10000706b f9              ??         F9h
       10000706c e1              ??         E1h
       10000706d 03              ??         03h
       10000706e 15              ??         15h
       10000706f aa              ??         AAh
       100007070 22              ??         22h    "
       100007071 00              ??         00h
       100007072 80              ??         80h
       100007073 52              ??         52h    R
       100007074 0c              ??         0Ch
       100007075 3e              ??         3Eh    >
       100007076 00              ??         00h
       100007077 94              ??         94h
       100007078 e8              ??         E8h
       100007079 3b              ??         3Bh    ;
       10000707a 40              ??         40h    @
       10000707b f9              ??         F9h
       10000707c 28              ??         28h    (
       10000707d 01              ??         01h
       10000707e 00              ??         00h
       10000707f b4              ??         B4h
       100007080 e0              ??         E0h
       100007081 87              ??         87h
       100007082 46              ??         46h    F
       100007083 a9              ??         A9h
       100007084 05              ??         05h
       100007085 00              ??         00h
       100007086 00              ??         00h
       100007087 14              ??         14h
       100007088 e0              ??         E0h
       100007089 07              ??         07h
       10000708a 00              ??         00h
       10000708b f9              ??         F9h
       10000708c b4              ??         B4h
       10000708d 00              ??         00h
       10000708e 00              ??         00h
       10000708f b4              ??         B4h
       100007090 e0              ??         E0h
       100007091 03              ??         03h
       100007092 15              ??         15h
       100007093 aa              ??         AAh
       100007094 e1              ??         E1h
       100007095 03              ??         03h
       100007096 14              ??         14h
       100007097 aa              ??         AAh
       100007098 22              ??         22h    "
       100007099 00              ??         00h
       10000709a 80              ??         80h
       10000709b 52              ??         52h    R
       10000709c 02              ??         02h
       10000709d 3e              ??         3Eh    >
       10000709e 00              ??         00h
       10000709f 94              ??         94h
       1000070a0 d3              ??         D3h
       1000070a1 04              ??         04h
       1000070a2 00              ??         00h
       1000070a3 b4              ??         B4h
       1000070a4 e0              ??         E0h
       1000070a5 03              ??         03h
       1000070a6 1c              ??         1Ch
       1000070a7 aa              ??         AAh
       1000070a8 e1              ??         E1h
       1000070a9 03              ??         03h
       1000070aa 13              ??         13h
       1000070ab aa              ??         AAh
       1000070ac 22              ??         22h    "
       1000070ad 00              ??         00h
       1000070ae 80              ??         80h
       1000070af 52              ??         52h    R
       1000070b0 fd              ??         FDh
       1000070b1 3d              ??         3Dh    =
       1000070b2 00              ??         00h
       1000070b3 94              ??         94h
       1000070b4 e0              ??         E0h
       1000070b5 07              ??         07h
       1000070b6 40              ??         40h    @
       1000070b7 f9              ??         F9h
       1000070b8 e7              ??         E7h
       1000070b9 5e              ??         5Eh    ^
       1000070ba 02              ??         02h
       1000070bb 94              ??         94h
       1000070bc e0              ??         E0h
       1000070bd 07              ??         07h
       1000070be 00              ??         00h
       1000070bf f9              ??         F9h
       1000070c0 e0              ??         E0h
       1000070c1 03              ??         03h
       1000070c2 13              ??         13h
       1000070c3 aa              ??         AAh
       1000070c4 de              ??         DEh
       1000070c5 ea              ??         EAh
       1000070c6 ff              ??         FFh
       1000070c7 97              ??         97h
       1000070c8 1a              ??         1Ah
       1000070c9 00              ??         00h
       1000070ca 00              ??         00h
       1000070cb 14              ??         14h
       1000070cc e0              ??         E0h
       1000070cd 07              ??         07h
       1000070ce 00              ??         00h
       1000070cf f9              ??         F9h
       1000070d0 54              ??         54h    T
       1000070d1 03              ??         03h
       1000070d2 00              ??         00h
       1000070d3 b4              ??         B4h
       1000070d4 81              ??         81h
       1000070d5 f6              ??         F6h
       1000070d6 7e              ??         7Eh    ~
       1000070d7 d3              ??         D3h
       1000070d8 e0              ??         E0h
       1000070d9 03              ??         03h
       1000070da 13              ??         13h
       1000070db aa              ??         AAh
       1000070dc 82              ??         82h
       1000070dd 00              ??         00h
       1000070de 80              ??         80h
       1000070df 52              ??         52h    R
       1000070e0 f1              ??         F1h
       1000070e1 3d              ??         3Dh    =
       1000070e2 00              ??         00h
       1000070e3 94              ??         94h
       1000070e4 e0              ??         E0h
       1000070e5 07              ??         07h
       1000070e6 40              ??         40h    @
       1000070e7 f9              ??         F9h
       1000070e8 db              ??         DBh
       1000070e9 5e              ??         5Eh    ^
       1000070ea 02              ??         02h
       1000070eb 94              ??         94h
       1000070ec e0              ??         E0h
       1000070ed 07              ??         07h
       1000070ee 00              ??         00h
       1000070ef f9              ??         F9h
       1000070f0 e0              ??         E0h
       1000070f1 43              ??         43h    C
       1000070f2 04              ??         04h
       1000070f3 91              ??         91h
       1000070f4 8a              ??         8Ah
       1000070f5 ec              ??         ECh
       1000070f6 ff              ??         FFh
       1000070f7 97              ??         97h
       1000070f8 10              ??         10h
       1000070f9 00              ??         00h
       1000070fa 00              ??         00h
       1000070fb 14              ??         14h
       1000070fc f5              ??         F5h
       1000070fd 5d              ??         5Dh    ]
       1000070fe 02              ??         02h
       1000070ff 94              ??         94h
       100007100 e0              ??         E0h
       100007101 07              ??         07h
       100007102 00              ??         00h
       100007103 f9              ??         F9h
       100007104 06              ??         06h
       100007105 00              ??         00h
       100007106 00              ??         00h
       100007107 14              ??         14h
       100007108 e0              ??         E0h
       100007109 07              ??         07h
       10000710a 00              ??         00h
       10000710b f9              ??         F9h
       10000710c 09              ??         09h
       10000710d 00              ??         00h
       10000710e 00              ??         00h
       10000710f 14              ??         14h
       100007110 e0              ??         E0h
       100007111 07              ??         07h
       100007112 00              ??         00h
       100007113 f9              ??         F9h
       100007114 e0              ??         E0h
       100007115 03              ??         03h
       100007116 23              ??         23h    #
       100007117 91              ??         91h
       100007118 ac              ??         ACh
       100007119 ed              ??         EDh
       10000711a ff              ??         FFh
       10000711b 97              ??         97h
       10000711c e1              ??         E1h
       10000711d 43              ??         43h    C
       10000711e 46              ??         46h    F
       10000711f f9              ??         F9h
       100007120 81              ??         81h
       100007121 00              ??         00h
       100007122 00              ??         00h
       100007123 b4              ??         B4h
       100007124 e0              ??         E0h
       100007125 47              ??         47h    G
       100007126 46              ??         46h    F
       100007127 f9              ??         F9h
       100007128 22              ??         22h    "
       100007129 00              ??         00h
       10000712a 80              ??         80h
       10000712b 52              ??         52h    R
       10000712c de              ??         DEh
       10000712d 3d              ??         3Dh    =
       10000712e 00              ??         00h
       10000712f 94              ??         94h
       100007130 e0              ??         E0h
       100007131 03              ??         03h
       100007132 14              ??         14h
       100007133 91              ??         91h
       100007134 a5              ??         A5h
       100007135 ed              ??         EDh
       100007136 ff              ??         FFh
       100007137 97              ??         97h
       100007138 e0              ??         E0h
       100007139 07              ??         07h
       10000713a 40              ??         40h    @
       10000713b f9              ??         F9h
       10000713c c6              ??         C6h
       10000713d 5e              ??         5Eh    ^
       10000713e 02              ??         02h
       10000713f 94              ??         94h
       100007140 e4              ??         E4h
       100007141 5d              ??         5Dh    ]
       100007142 02              ??         02h
       100007143 94              ??         94h
       100007144 e3              ??         E3h
       100007145 5d              ??         5Dh    ]
       100007146 02              ??         02h
       100007147 94              ??         94h
